---
triple:          'arm64-apple-darwin'
binary-path:     ch4_ex4
relocations:
  - { offsetInCU: 0x16E, offset: 0x16E, size: 0x8, addend: 0x0, symName: __ZSt23__is_constant_evaluatedv, symObjAddr: 0x0, symBinAddr: 0x100006070, symSize: 0x8 }
  - { offsetInCU: 0x41C8, offset: 0x41C8, size: 0x8, addend: 0x0, symName: __Z7toupperi, symObjAddr: 0x180, symBinAddr: 0x1000061F0, symSize: 0x1C }
  - { offsetInCU: 0x41D0, offset: 0x41D0, size: 0x8, addend: 0x0, symName: __ZNSt11char_traitsIcE6assignERcRKc, symObjAddr: 0x19C, symBinAddr: 0x10000620C, symSize: 0x50 }
  - { offsetInCU: 0x5047, offset: 0x5047, size: 0x8, addend: 0x0, symName: __ZNSt6ranges6__cust5beginE, symObjAddr: 0x10E58, symBinAddr: 0x100018F18, symSize: 0x0 }
  - { offsetInCU: 0x5065, offset: 0x5065, size: 0x8, addend: 0x0, symName: __ZNSt6ranges6__cust3endE, symObjAddr: 0x10E59, symBinAddr: 0x100018F19, symSize: 0x0 }
  - { offsetInCU: 0xB64E, offset: 0xB64E, size: 0x8, addend: 0x0, symName: __ZNSt6ranges4copyE, symObjAddr: 0x10E5A, symBinAddr: 0x100018F1A, symSize: 0x0 }
  - { offsetInCU: 0xC0CF, offset: 0xC0CF, size: 0x8, addend: 0x0, symName: __ZSt8to_charsPcS_mi, symObjAddr: 0x88, symBinAddr: 0x1000060F8, symSize: 0x34 }
  - { offsetInCU: 0xC0D7, offset: 0xC0D7, size: 0x8, addend: 0x0, symName: __ZSt11__bit_widthIiEiT_, symObjAddr: 0xBC, symBinAddr: 0x10000612C, symSize: 0x30 }
  - { offsetInCU: 0xEA08, offset: 0xEA08, size: 0x8, addend: 0x0, symName: __ZStL8__ioinit, symObjAddr: 0xA3F18, symBinAddr: 0x100025188, symSize: 0x0 }
  - { offsetInCU: 0xF757, offset: 0xF757, size: 0x8, addend: 0x0, symName: __ZNSt8__detail31__from_chars_alnum_to_val_tableILb0EE5valueE, symObjAddr: 0x10E5B, symBinAddr: 0x100018F1B, symSize: 0x0 }
  - { offsetInCU: 0x13879, offset: 0x13879, size: 0x8, addend: 0x0, symName: __ZNSt8__detail14__destructibleINSt8__format10_Sink_iterIcEEEE, symObjAddr: 0x110D9, symBinAddr: 0x100019199, symSize: 0x0 }
  - { offsetInCU: 0x13893, offset: 0x13893, size: 0x8, addend: 0x0, symName: __ZNSt8__detail19__destructible_implINSt8__format10_Sink_iterIcEEEE, symObjAddr: 0x110DA, symBinAddr: 0x10001919A, symSize: 0x0 }
  - { offsetInCU: 0x13A06, offset: 0x13A06, size: 0x8, addend: 0x0, symName: __ZNSt8__detail14__destructibleINSt8__format10_Sink_iterIwEEEE, symObjAddr: 0x110DB, symBinAddr: 0x10001919B, symSize: 0x0 }
  - { offsetInCU: 0x13A20, offset: 0x13A20, size: 0x8, addend: 0x0, symName: __ZNSt8__detail19__destructible_implINSt8__format10_Sink_iterIwEEEE, symObjAddr: 0x110DC, symBinAddr: 0x10001919C, symSize: 0x0 }
  - { offsetInCU: 0x13B37, offset: 0x13B37, size: 0x8, addend: 0x0, symName: __ZNSt8__detail14__destructibleIPcEE, symObjAddr: 0x110DD, symBinAddr: 0x10001919D, symSize: 0x0 }
  - { offsetInCU: 0x13B51, offset: 0x13B51, size: 0x8, addend: 0x0, symName: __ZNSt8__detail19__destructible_implIPcEE, symObjAddr: 0x110DE, symBinAddr: 0x10001919E, symSize: 0x0 }
  - { offsetInCU: 0x13F1A, offset: 0x13F1A, size: 0x8, addend: 0x0, symName: __ZNSt8__detail14__destructibleIPwEE, symObjAddr: 0x110DF, symBinAddr: 0x10001919F, symSize: 0x0 }
  - { offsetInCU: 0x13F34, offset: 0x13F34, size: 0x8, addend: 0x0, symName: __ZNSt8__detail19__destructible_implIPwEE, symObjAddr: 0x110E0, symBinAddr: 0x1000191A0, symSize: 0x0 }
  - { offsetInCU: 0x14368, offset: 0x14368, size: 0x8, addend: 0x0, symName: __ZNSt8__detail14__destructibleIPKcEE, symObjAddr: 0x110E1, symBinAddr: 0x1000191A1, symSize: 0x0 }
  - { offsetInCU: 0x14382, offset: 0x14382, size: 0x8, addend: 0x0, symName: __ZNSt8__detail19__destructible_implIPKcEE, symObjAddr: 0x110E2, symBinAddr: 0x1000191A2, symSize: 0x0 }
  - { offsetInCU: 0x14637, offset: 0x14637, size: 0x8, addend: 0x0, symName: __ZNSt8__detail30__integer_to_chars_is_unsignedIjEE, symObjAddr: 0x110E3, symBinAddr: 0x1000191A3, symSize: 0x0 }
  - { offsetInCU: 0x14651, offset: 0x14651, size: 0x8, addend: 0x0, symName: __ZNSt8__detail30__integer_to_chars_is_unsignedImEE, symObjAddr: 0x110E4, symBinAddr: 0x1000191A4, symSize: 0x0 }
  - { offsetInCU: 0x1466B, offset: 0x1466B, size: 0x8, addend: 0x0, symName: __ZNSt8__detail30__integer_to_chars_is_unsignedIyEE, symObjAddr: 0x110E5, symBinAddr: 0x1000191A5, symSize: 0x0 }
  - { offsetInCU: 0x148C5, offset: 0x148C5, size: 0x8, addend: 0x0, symName: __ZSt22__is_specialization_ofIPKcSt17basic_string_viewE, symObjAddr: 0x110E6, symBinAddr: 0x1000191A6, symSize: 0x0 }
  - { offsetInCU: 0x148E1, offset: 0x148E1, size: 0x8, addend: 0x0, symName: __ZSt22__is_specialization_ofIPKcNSt7__cxx1112basic_stringEE, symObjAddr: 0x110E7, symBinAddr: 0x1000191A7, symSize: 0x0 }
  - { offsetInCU: 0x14A26, offset: 0x14A26, size: 0x8, addend: 0x0, symName: __ZSt22__is_specialization_ofINSt7__cxx1112basic_stringIcSt11char_traitsIcESaIcEEES1_E, symObjAddr: 0x110E8, symBinAddr: 0x1000191A8, symSize: 0x0 }
  - { offsetInCU: 0x14AB3, offset: 0x14AB3, size: 0x8, addend: 0x0, symName: __ZSt22__is_specialization_ofINSt7__cxx1112basic_stringIwSt11char_traitsIwESaIwEEES1_E, symObjAddr: 0x110E9, symBinAddr: 0x1000191A9, symSize: 0x0 }
  - { offsetInCU: 0x14B74, offset: 0x14B74, size: 0x8, addend: 0x0, symName: __ZNSt8__detail14__destructibleIPKNSt8__format6_Arg_tEEE, symObjAddr: 0x110EA, symBinAddr: 0x1000191AA, symSize: 0x0 }
  - { offsetInCU: 0x14B8E, offset: 0x14B8E, size: 0x8, addend: 0x0, symName: __ZNSt8__detail19__destructible_implIPKNSt8__format6_Arg_tEEE, symObjAddr: 0x110EB, symBinAddr: 0x1000191AB, symSize: 0x0 }
  - { offsetInCU: 0x150DE, offset: 0x150DE, size: 0x8, addend: 0x0, symName: __ZNSt8__detail14__destructibleImEE, symObjAddr: 0x110EC, symBinAddr: 0x1000191AC, symSize: 0x0 }
  - { offsetInCU: 0x150F8, offset: 0x150F8, size: 0x8, addend: 0x0, symName: __ZNSt8__detail19__destructible_implImEE, symObjAddr: 0x110ED, symBinAddr: 0x1000191AD, symSize: 0x0 }
  - { offsetInCU: 0x1530A, offset: 0x1530A, size: 0x8, addend: 0x0, symName: __ZNSt8__detail14__destructibleISt9formatterIPKccEEE, symObjAddr: 0x110EE, symBinAddr: 0x1000191AE, symSize: 0x0 }
  - { offsetInCU: 0x15324, offset: 0x15324, size: 0x8, addend: 0x0, symName: __ZNSt8__detail19__destructible_implISt9formatterIPKccEEE, symObjAddr: 0x110EF, symBinAddr: 0x1000191AF, symSize: 0x0 }
  - { offsetInCU: 0x154DC, offset: 0x154DC, size: 0x8, addend: 0x0, symName: __ZNSt8__detail14__destructibleISt9formatterIccEEE, symObjAddr: 0x110F0, symBinAddr: 0x1000191B0, symSize: 0x0 }
  - { offsetInCU: 0x154F6, offset: 0x154F6, size: 0x8, addend: 0x0, symName: __ZNSt8__detail19__destructible_implISt9formatterIccEEE, symObjAddr: 0x110F1, symBinAddr: 0x1000191B1, symSize: 0x0 }
  - { offsetInCU: 0x159D3, offset: 0x159D3, size: 0x8, addend: 0x0, symName: __ZNSt8__detail14__destructibleIPKwEE, symObjAddr: 0x110F2, symBinAddr: 0x1000191B2, symSize: 0x0 }
  - { offsetInCU: 0x159ED, offset: 0x159ED, size: 0x8, addend: 0x0, symName: __ZNSt8__detail19__destructible_implIPKwEE, symObjAddr: 0x110F3, symBinAddr: 0x1000191B3, symSize: 0x0 }
  - { offsetInCU: 0x15EE1, offset: 0x15EE1, size: 0x8, addend: 0x0, symName: __ZNSt8__detail14__destructibleISt9formatterIscEEE, symObjAddr: 0x110F4, symBinAddr: 0x1000191B4, symSize: 0x0 }
  - { offsetInCU: 0x15EFB, offset: 0x15EFB, size: 0x8, addend: 0x0, symName: __ZNSt8__detail19__destructible_implISt9formatterIscEEE, symObjAddr: 0x110F5, symBinAddr: 0x1000191B5, symSize: 0x0 }
  - { offsetInCU: 0x160B3, offset: 0x160B3, size: 0x8, addend: 0x0, symName: __ZNSt8__detail14__destructibleISt9formatterIicEEE, symObjAddr: 0x110F6, symBinAddr: 0x1000191B6, symSize: 0x0 }
  - { offsetInCU: 0x160CD, offset: 0x160CD, size: 0x8, addend: 0x0, symName: __ZNSt8__detail19__destructible_implISt9formatterIicEEE, symObjAddr: 0x110F7, symBinAddr: 0x1000191B7, symSize: 0x0 }
  - { offsetInCU: 0x16285, offset: 0x16285, size: 0x8, addend: 0x0, symName: __ZNSt8__detail14__destructibleISt9formatterIlcEEE, symObjAddr: 0x110F8, symBinAddr: 0x1000191B8, symSize: 0x0 }
  - { offsetInCU: 0x1629F, offset: 0x1629F, size: 0x8, addend: 0x0, symName: __ZNSt8__detail19__destructible_implISt9formatterIlcEEE, symObjAddr: 0x110F9, symBinAddr: 0x1000191B9, symSize: 0x0 }
  - { offsetInCU: 0x16457, offset: 0x16457, size: 0x8, addend: 0x0, symName: __ZNSt8__detail14__destructibleISt9formatterIfcEEE, symObjAddr: 0x110FA, symBinAddr: 0x1000191BA, symSize: 0x0 }
  - { offsetInCU: 0x16471, offset: 0x16471, size: 0x8, addend: 0x0, symName: __ZNSt8__detail19__destructible_implISt9formatterIfcEEE, symObjAddr: 0x110FB, symBinAddr: 0x1000191BB, symSize: 0x0 }
  - { offsetInCU: 0x16629, offset: 0x16629, size: 0x8, addend: 0x0, symName: __ZNSt8__detail14__destructibleISt9formatterIdcEEE, symObjAddr: 0x110FC, symBinAddr: 0x1000191BC, symSize: 0x0 }
  - { offsetInCU: 0x16643, offset: 0x16643, size: 0x8, addend: 0x0, symName: __ZNSt8__detail19__destructible_implISt9formatterIdcEEE, symObjAddr: 0x110FD, symBinAddr: 0x1000191BD, symSize: 0x0 }
  - { offsetInCU: 0x167FB, offset: 0x167FB, size: 0x8, addend: 0x0, symName: __ZNSt8__detail14__destructibleISt9formatterIecEEE, symObjAddr: 0x110FE, symBinAddr: 0x1000191BE, symSize: 0x0 }
  - { offsetInCU: 0x16815, offset: 0x16815, size: 0x8, addend: 0x0, symName: __ZNSt8__detail19__destructible_implISt9formatterIecEEE, symObjAddr: 0x110FF, symBinAddr: 0x1000191BF, symSize: 0x0 }
  - { offsetInCU: 0x169CD, offset: 0x169CD, size: 0x8, addend: 0x0, symName: __ZNSt8__detail14__destructibleISt9formatterIjcEEE, symObjAddr: 0x11100, symBinAddr: 0x1000191C0, symSize: 0x0 }
  - { offsetInCU: 0x169E7, offset: 0x169E7, size: 0x8, addend: 0x0, symName: __ZNSt8__detail19__destructible_implISt9formatterIjcEEE, symObjAddr: 0x11101, symBinAddr: 0x1000191C1, symSize: 0x0 }
  - { offsetInCU: 0x17EC0, offset: 0x17EC0, size: 0x8, addend: 0x0, symName: __ZNSt8__detail14__destructibleIN9__gnu_cxx17__normal_iteratorIPwSt4spanIwLm18446744073709551615EEEEEE, symObjAddr: 0x11102, symBinAddr: 0x1000191C2, symSize: 0x0 }
  - { offsetInCU: 0x17EDA, offset: 0x17EDA, size: 0x8, addend: 0x0, symName: __ZNSt8__detail19__destructible_implIN9__gnu_cxx17__normal_iteratorIPwSt4spanIwLm18446744073709551615EEEEEE, symObjAddr: 0x11103, symBinAddr: 0x1000191C3, symSize: 0x0 }
  - { offsetInCU: 0x18389, offset: 0x18389, size: 0x8, addend: 0x0, symName: __ZNSt8__detail14__destructibleIN9__gnu_cxx17__normal_iteratorIPcSt4spanIcLm18446744073709551615EEEEEE, symObjAddr: 0x11104, symBinAddr: 0x1000191C4, symSize: 0x0 }
  - { offsetInCU: 0x183A3, offset: 0x183A3, size: 0x8, addend: 0x0, symName: __ZNSt8__detail19__destructible_implIN9__gnu_cxx17__normal_iteratorIPcSt4spanIcLm18446744073709551615EEEEEE, symObjAddr: 0x11105, symBinAddr: 0x1000191C5, symSize: 0x0 }
  - { offsetInCU: 0x18589, offset: 0x18589, size: 0x8, addend: 0x0, symName: __ZNSt8__detail14__destructibleIiEE, symObjAddr: 0x11106, symBinAddr: 0x1000191C6, symSize: 0x0 }
  - { offsetInCU: 0x185A3, offset: 0x185A3, size: 0x8, addend: 0x0, symName: __ZNSt8__detail19__destructible_implIiEE, symObjAddr: 0x11107, symBinAddr: 0x1000191C7, symSize: 0x0 }
  - { offsetInCU: 0x187B7, offset: 0x187B7, size: 0x8, addend: 0x0, symName: __ZNSt8__detail14__destructibleIjEE, symObjAddr: 0x11108, symBinAddr: 0x1000191C8, symSize: 0x0 }
  - { offsetInCU: 0x187D1, offset: 0x187D1, size: 0x8, addend: 0x0, symName: __ZNSt8__detail19__destructible_implIjEE, symObjAddr: 0x11109, symBinAddr: 0x1000191C9, symSize: 0x0 }
  - { offsetInCU: 0x189B7, offset: 0x189B7, size: 0x8, addend: 0x0, symName: __ZNSt8__detail14__destructibleIlEE, symObjAddr: 0x1110A, symBinAddr: 0x1000191CA, symSize: 0x0 }
  - { offsetInCU: 0x189D1, offset: 0x189D1, size: 0x8, addend: 0x0, symName: __ZNSt8__detail19__destructible_implIlEE, symObjAddr: 0x1110B, symBinAddr: 0x1000191CB, symSize: 0x0 }
  - { offsetInCU: 0x18FF3, offset: 0x18FF3, size: 0x8, addend: 0x0, symName: __ZNSt8__detail30__integer_to_chars_is_unsignedIoEE, symObjAddr: 0x1110C, symBinAddr: 0x1000191CC, symSize: 0x0 }
  - { offsetInCU: 0x19031, offset: 0x19031, size: 0x8, addend: 0x0, symName: __GLOBAL__sub_I_ch4_ex4.cpp, symObjAddr: 0x10E40, symBinAddr: 0x100016EB0, symSize: 0x14 }
  - { offsetInCU: 0x19072, offset: 0x19072, size: 0x8, addend: 0x0, symName: __ZSt13__countl_zeroIoEiT_, symObjAddr: 0x10DA8, symBinAddr: 0x100016E18, symSize: 0x98 }
  - { offsetInCU: 0x1907A, offset: 0x1907A, size: 0x8, addend: 0x0, symName: __GLOBAL__sub_I_ch4_ex4.cpp, symObjAddr: 0x10E40, symBinAddr: 0x100016EB0, symSize: 0x14 }
  - { offsetInCU: 0x191C6, offset: 0x191C6, size: 0x8, addend: 0x0, symName: __ZSt11__addressofIKNSt7__cxx1112basic_stringIcSt11char_traitsIcESaIcEEEEPT_RS7_, symObjAddr: 0x10D94, symBinAddr: 0x100016E04, symSize: 0x14 }
  - { offsetInCU: 0x191CE, offset: 0x191CE, size: 0x8, addend: 0x0, symName: __ZSt13__countl_zeroIoEiT_, symObjAddr: 0x10DA8, symBinAddr: 0x100016E18, symSize: 0x98 }
  - { offsetInCU: 0x191DC, offset: 0x191DC, size: 0x8, addend: 0x0, symName: __ZNSt8__detail18__to_chars_10_implIoEEvPcjT_, symObjAddr: 0x10B98, symBinAddr: 0x100016C08, symSize: 0x1FC }
  - { offsetInCU: 0x191E4, offset: 0x191E4, size: 0x8, addend: 0x0, symName: __ZSt11__addressofIKNSt7__cxx1112basic_stringIcSt11char_traitsIcESaIcEEEEPT_RS7_, symObjAddr: 0x10D94, symBinAddr: 0x100016E04, symSize: 0x14 }
  - { offsetInCU: 0x192BB, offset: 0x192BB, size: 0x8, addend: 0x0, symName: __ZSt11__bit_widthIoEiT_, symObjAddr: 0x10B68, symBinAddr: 0x100016BD8, symSize: 0x30 }
  - { offsetInCU: 0x192C3, offset: 0x192C3, size: 0x8, addend: 0x0, symName: __ZNSt8__detail18__to_chars_10_implIoEEvPcjT_, symObjAddr: 0x10B98, symBinAddr: 0x100016C08, symSize: 0x1FC }
  - { offsetInCU: 0x19344, offset: 0x19344, size: 0x8, addend: 0x0, symName: __ZNK9__gnu_cxx17__normal_iteratorIPcSt4spanIcLm18446744073709551615EEEdeEv, symObjAddr: 0x10B50, symBinAddr: 0x100016BC0, symSize: 0x18 }
  - { offsetInCU: 0x1934C, offset: 0x1934C, size: 0x8, addend: 0x0, symName: __ZSt11__bit_widthIoEiT_, symObjAddr: 0x10B68, symBinAddr: 0x100016BD8, symSize: 0x30 }
  - { offsetInCU: 0x19375, offset: 0x19375, size: 0x8, addend: 0x0, symName: __ZN9__gnu_cxx17__normal_iteratorIPcSt4spanIcLm18446744073709551615EEEppEi, symObjAddr: 0x10B10, symBinAddr: 0x100016B80, symSize: 0x40 }
  - { offsetInCU: 0x1937D, offset: 0x1937D, size: 0x8, addend: 0x0, symName: __ZNK9__gnu_cxx17__normal_iteratorIPcSt4spanIcLm18446744073709551615EEEdeEv, symObjAddr: 0x10B50, symBinAddr: 0x100016BC0, symSize: 0x18 }
  - { offsetInCU: 0x193C6, offset: 0x193C6, size: 0x8, addend: 0x0, symName: __ZNKSt8__format17_WidthPrecVisitorclINSt16basic_format_argISt20basic_format_contextINS_10_Sink_iterIcEEcEE6handleEEEmRT_, symObjAddr: 0x10AF4, symBinAddr: 0x100016B64, symSize: 0x1C }
  - { offsetInCU: 0x193CE, offset: 0x193CE, size: 0x8, addend: 0x0, symName: __ZN9__gnu_cxx17__normal_iteratorIPcSt4spanIcLm18446744073709551615EEEppEi, symObjAddr: 0x10B10, symBinAddr: 0x100016B80, symSize: 0x40 }
  - { offsetInCU: 0x19418, offset: 0x19418, size: 0x8, addend: 0x0, symName: __ZNKSt8__format17_WidthPrecVisitorclISt17basic_string_viewIcSt11char_traitsIcEEEEmRT_, symObjAddr: 0x10AD8, symBinAddr: 0x100016B48, symSize: 0x1C }
  - { offsetInCU: 0x19420, offset: 0x19420, size: 0x8, addend: 0x0, symName: __ZNKSt8__format17_WidthPrecVisitorclINSt16basic_format_argISt20basic_format_contextINS_10_Sink_iterIcEEcEE6handleEEEmRT_, symObjAddr: 0x10AF4, symBinAddr: 0x100016B64, symSize: 0x1C }
  - { offsetInCU: 0x1946A, offset: 0x1946A, size: 0x8, addend: 0x0, symName: __ZNKSt8__format17_WidthPrecVisitorclIPKcEEmRT_, symObjAddr: 0x10ABC, symBinAddr: 0x100016B2C, symSize: 0x1C }
  - { offsetInCU: 0x19472, offset: 0x19472, size: 0x8, addend: 0x0, symName: __ZNKSt8__format17_WidthPrecVisitorclISt17basic_string_viewIcSt11char_traitsIcEEEEmRT_, symObjAddr: 0x10AD8, symBinAddr: 0x100016B48, symSize: 0x1C }
  - { offsetInCU: 0x194BC, offset: 0x194BC, size: 0x8, addend: 0x0, symName: __ZNKSt8__format17_WidthPrecVisitorclIcEEmRT_, symObjAddr: 0x10AA0, symBinAddr: 0x100016B10, symSize: 0x1C }
  - { offsetInCU: 0x194C4, offset: 0x194C4, size: 0x8, addend: 0x0, symName: __ZNKSt8__format17_WidthPrecVisitorclIPKcEEmRT_, symObjAddr: 0x10ABC, symBinAddr: 0x100016B2C, symSize: 0x1C }
  - { offsetInCU: 0x19513, offset: 0x19513, size: 0x8, addend: 0x0, symName: __ZNSt7__cxx1112basic_stringIcSt11char_traitsIcESaIcEE9_M_assignERKS4_, symObjAddr: 0x109AC, symBinAddr: 0x100016A1C, symSize: 0xF4 }
  - { offsetInCU: 0x1951B, offset: 0x1951B, size: 0x8, addend: 0x0, symName: __ZNKSt8__format17_WidthPrecVisitorclIcEEmRT_, symObjAddr: 0x10AA0, symBinAddr: 0x100016B10, symSize: 0x1C }
  - { offsetInCU: 0x19613, offset: 0x19613, size: 0x8, addend: 0x0, symName: __ZNKSt4spanIcLm18446744073709551615EE7subspanEmm, symObjAddr: 0x10878, symBinAddr: 0x1000168E8, symSize: 0x134 }
  - { offsetInCU: 0x1961B, offset: 0x1961B, size: 0x8, addend: 0x0, symName: __ZNSt7__cxx1112basic_stringIcSt11char_traitsIcESaIcEE9_M_assignERKS4_, symObjAddr: 0x109AC, symBinAddr: 0x100016A1C, symSize: 0xF4 }
  - { offsetInCU: 0x196C8, offset: 0x196C8, size: 0x8, addend: 0x0, symName: __ZNSt8__detail10__to_charsIoEESt15to_chars_resultPcS2_T_i, symObjAddr: 0x106E0, symBinAddr: 0x100016750, symSize: 0x198 }
  - { offsetInCU: 0x196D0, offset: 0x196D0, size: 0x8, addend: 0x0, symName: __ZNKSt4spanIcLm18446744073709551615EE7subspanEmm, symObjAddr: 0x10878, symBinAddr: 0x1000168E8, symSize: 0x134 }
  - { offsetInCU: 0x198DD, offset: 0x198DD, size: 0x8, addend: 0x0, symName: __ZNSt8__detail12__to_chars_2IoEENSt9enable_ifIXsrSt5__or_IJS2_IJSt7is_sameINSt9remove_cvIT_E4typeEaES3_IS7_sES3_IS7_iES3_IS7_lES3_IS7_xEEES2_IJS3_IS7_hES3_IS7_tES3_IS7_jES3_IS7_mES3_IS7_yEEES3_IS5_nES3_IS5_oES3_IcS7_EEE5valueESt15to_chars_resultE4typeEPcSR_S5_, symObjAddr: 0x105D8, symBinAddr: 0x100016648, symSize: 0x108 }
  - { offsetInCU: 0x198E5, offset: 0x198E5, size: 0x8, addend: 0x0, symName: __ZNSt8__detail10__to_charsIoEESt15to_chars_resultPcS2_T_i, symObjAddr: 0x106E0, symBinAddr: 0x100016750, symSize: 0x198 }
  - { offsetInCU: 0x1998F, offset: 0x1998F, size: 0x8, addend: 0x0, symName: __ZNSt8__detail12__to_chars_8IoEENSt9enable_ifIXsrSt5__or_IJS2_IJSt7is_sameINSt9remove_cvIT_E4typeEaES3_IS7_sES3_IS7_iES3_IS7_lES3_IS7_xEEES2_IJS3_IS7_hES3_IS7_tES3_IS7_jES3_IS7_mES3_IS7_yEEES3_IS5_nES3_IS5_oES3_IcS7_EEE5valueESt15to_chars_resultE4typeEPcSR_S5_, symObjAddr: 0x10364, symBinAddr: 0x1000163D4, symSize: 0x274 }
  - { offsetInCU: 0x19997, offset: 0x19997, size: 0x8, addend: 0x0, symName: __ZNSt8__detail12__to_chars_2IoEENSt9enable_ifIXsrSt5__or_IJS2_IJSt7is_sameINSt9remove_cvIT_E4typeEaES3_IS7_sES3_IS7_iES3_IS7_lES3_IS7_xEEES2_IJS3_IS7_hES3_IS7_tES3_IS7_jES3_IS7_mES3_IS7_yEEES3_IS5_nES3_IS5_oES3_IcS7_EEE5valueESt15to_chars_resultE4typeEPcSR_S5_, symObjAddr: 0x105D8, symBinAddr: 0x100016648, symSize: 0x108 }
  - { offsetInCU: 0x19A93, offset: 0x19A93, size: 0x8, addend: 0x0, symName: __ZNSt8__detail13__to_chars_10IoEENSt9enable_ifIXsrSt5__or_IJS2_IJSt7is_sameINSt9remove_cvIT_E4typeEaES3_IS7_sES3_IS7_iES3_IS7_lES3_IS7_xEEES2_IJS3_IS7_hES3_IS7_tES3_IS7_jES3_IS7_mES3_IS7_yEEES3_IS5_nES3_IS5_oES3_IcS7_EEE5valueESt15to_chars_resultE4typeEPcSR_S5_, symObjAddr: 0x102D0, symBinAddr: 0x100016340, symSize: 0x94 }
  - { offsetInCU: 0x19A9B, offset: 0x19A9B, size: 0x8, addend: 0x0, symName: __ZNSt8__detail12__to_chars_8IoEENSt9enable_ifIXsrSt5__or_IJS2_IJSt7is_sameINSt9remove_cvIT_E4typeEaES3_IS7_sES3_IS7_iES3_IS7_lES3_IS7_xEEES2_IJS3_IS7_hES3_IS7_tES3_IS7_jES3_IS7_mES3_IS7_yEEES3_IS5_nES3_IS5_oES3_IcS7_EEE5valueESt15to_chars_resultE4typeEPcSR_S5_, symObjAddr: 0x10364, symBinAddr: 0x1000163D4, symSize: 0x274 }
  - { offsetInCU: 0x19A4F, offset: 0x19A4F, size: 0x8, addend: 0x0, symName: __ZNSt8__detail14__to_chars_lenIoEEjT_i, symObjAddr: 0x1013C, symBinAddr: 0x1000161AC, symSize: 0x194 }
  - { offsetInCU: 0x19A57, offset: 0x19A57, size: 0x8, addend: 0x0, symName: __ZNSt8__detail13__to_chars_10IoEENSt9enable_ifIXsrSt5__or_IJS2_IJSt7is_sameINSt9remove_cvIT_E4typeEaES3_IS7_sES3_IS7_iES3_IS7_lES3_IS7_xEEES2_IJS3_IS7_hES3_IS7_tES3_IS7_jES3_IS7_mES3_IS7_yEEES3_IS5_nES3_IS5_oES3_IcS7_EEE5valueESt15to_chars_resultE4typeEPcSR_S5_, symObjAddr: 0x102D0, symBinAddr: 0x100016340, symSize: 0x94 }
  - { offsetInCU: 0x19BD9, offset: 0x19BD9, size: 0x8, addend: 0x0, symName: __ZNSt8__detail13__to_chars_16IoEENSt9enable_ifIXsrSt5__or_IJS2_IJSt7is_sameINSt9remove_cvIT_E4typeEaES3_IS7_sES3_IS7_iES3_IS7_lES3_IS7_xEEES2_IJS3_IS7_hES3_IS7_tES3_IS7_jES3_IS7_mES3_IS7_yEEES3_IS5_nES3_IS5_oES3_IcS7_EEE5valueESt15to_chars_resultE4typeEPcSR_S5_, symObjAddr: 0xFEDC, symBinAddr: 0x100015F4C, symSize: 0x260 }
  - { offsetInCU: 0x19BE1, offset: 0x19BE1, size: 0x8, addend: 0x0, symName: __ZNSt8__detail14__to_chars_lenIoEEjT_i, symObjAddr: 0x1013C, symBinAddr: 0x1000161AC, symSize: 0x194 }
  - { offsetInCU: 0x19C22, offset: 0x19C22, size: 0x8, addend: 0x0, symName: __ZNSt8__detail16__to_chars_len_2IoEEjT_, symObjAddr: 0xFEC0, symBinAddr: 0x100015F30, symSize: 0x1C }
  - { offsetInCU: 0x19C2A, offset: 0x19C2A, size: 0x8, addend: 0x0, symName: __ZNSt8__detail13__to_chars_16IoEENSt9enable_ifIXsrSt5__or_IJS2_IJSt7is_sameINSt9remove_cvIT_E4typeEaES3_IS7_sES3_IS7_iES3_IS7_lES3_IS7_xEEES2_IJS3_IS7_hES3_IS7_tES3_IS7_jES3_IS7_mES3_IS7_yEEES3_IS5_nES3_IS5_oES3_IcS7_EEE5valueESt15to_chars_resultE4typeEPcSR_S5_, symObjAddr: 0xFEDC, symBinAddr: 0x100015F4C, symSize: 0x260 }
  - { offsetInCU: 0x19C1E, offset: 0x19C1E, size: 0x8, addend: 0x0, symName: __ZNSt7__cxx1112basic_stringIcSt11char_traitsIcESaIcEE6assignEPKcm, symObjAddr: 0xFE84, symBinAddr: 0x100015EF4, symSize: 0x3C }
  - { offsetInCU: 0x19C26, offset: 0x19C26, size: 0x8, addend: 0x0, symName: __ZNSt8__detail16__to_chars_len_2IoEEjT_, symObjAddr: 0xFEC0, symBinAddr: 0x100015F30, symSize: 0x1C }
  - { offsetInCU: 0x19C7C, offset: 0x19C7C, size: 0x8, addend: 0x0, symName: __ZNSt7__cxx1112basic_stringIcSt11char_traitsIcESaIcEE6resizeEmc, symObjAddr: 0xFE0C, symBinAddr: 0x100015E7C, symSize: 0x78 }
  - { offsetInCU: 0x19C84, offset: 0x19C84, size: 0x8, addend: 0x0, symName: __ZNSt7__cxx1112basic_stringIcSt11char_traitsIcESaIcEE6assignEPKcm, symObjAddr: 0xFE84, symBinAddr: 0x100015EF4, symSize: 0x3C }
  - { offsetInCU: 0x19CF3, offset: 0x19CF3, size: 0x8, addend: 0x0, symName: __ZNKSt8__format17_WidthPrecVisitorclIoEEmRT_, symObjAddr: 0xFDF0, symBinAddr: 0x100015E60, symSize: 0x1C }
  - { offsetInCU: 0x19CFB, offset: 0x19CFB, size: 0x8, addend: 0x0, symName: __ZNSt7__cxx1112basic_stringIcSt11char_traitsIcESaIcEE6resizeEmc, symObjAddr: 0xFE0C, symBinAddr: 0x100015E7C, symSize: 0x78 }
  - { offsetInCU: 0x19D4F, offset: 0x19D4F, size: 0x8, addend: 0x0, symName: __ZNKSt8__format17_WidthPrecVisitorclInEEmRT_, symObjAddr: 0xFDD4, symBinAddr: 0x100015E44, symSize: 0x1C }
  - { offsetInCU: 0x19D57, offset: 0x19D57, size: 0x8, addend: 0x0, symName: __ZNKSt8__format17_WidthPrecVisitorclIoEEmRT_, symObjAddr: 0xFDF0, symBinAddr: 0x100015E60, symSize: 0x1C }
  - { offsetInCU: 0x19DAB, offset: 0x19DAB, size: 0x8, addend: 0x0, symName: __ZNKSt8__format17_WidthPrecVisitorclIPKvEEmRT_, symObjAddr: 0xFDB8, symBinAddr: 0x100015E28, symSize: 0x1C }
  - { offsetInCU: 0x19DB3, offset: 0x19DB3, size: 0x8, addend: 0x0, symName: __ZNKSt8__format17_WidthPrecVisitorclInEEmRT_, symObjAddr: 0xFDD4, symBinAddr: 0x100015E44, symSize: 0x1C }
  - { offsetInCU: 0x19E07, offset: 0x19E07, size: 0x8, addend: 0x0, symName: __ZNKSt8__format17_WidthPrecVisitorclIeEEmRT_, symObjAddr: 0xFD9C, symBinAddr: 0x100015E0C, symSize: 0x1C }
  - { offsetInCU: 0x19E0F, offset: 0x19E0F, size: 0x8, addend: 0x0, symName: __ZNKSt8__format17_WidthPrecVisitorclIPKvEEmRT_, symObjAddr: 0xFDB8, symBinAddr: 0x100015E28, symSize: 0x1C }
  - { offsetInCU: 0x19E63, offset: 0x19E63, size: 0x8, addend: 0x0, symName: __ZNKSt8__format17_WidthPrecVisitorclIdEEmRT_, symObjAddr: 0xFD80, symBinAddr: 0x100015DF0, symSize: 0x1C }
  - { offsetInCU: 0x19E6B, offset: 0x19E6B, size: 0x8, addend: 0x0, symName: __ZNKSt8__format17_WidthPrecVisitorclIeEEmRT_, symObjAddr: 0xFD9C, symBinAddr: 0x100015E0C, symSize: 0x1C }
  - { offsetInCU: 0x19EBF, offset: 0x19EBF, size: 0x8, addend: 0x0, symName: __ZNKSt8__format17_WidthPrecVisitorclIfEEmRT_, symObjAddr: 0xFD64, symBinAddr: 0x100015DD4, symSize: 0x1C }
  - { offsetInCU: 0x19EC7, offset: 0x19EC7, size: 0x8, addend: 0x0, symName: __ZNKSt8__format17_WidthPrecVisitorclIdEEmRT_, symObjAddr: 0xFD80, symBinAddr: 0x100015DF0, symSize: 0x1C }
  - { offsetInCU: 0x19F1B, offset: 0x19F1B, size: 0x8, addend: 0x0, symName: __ZNKSt8__format17_WidthPrecVisitorclIyEEmRT_, symObjAddr: 0xFD48, symBinAddr: 0x100015DB8, symSize: 0x1C }
  - { offsetInCU: 0x19F23, offset: 0x19F23, size: 0x8, addend: 0x0, symName: __ZNKSt8__format17_WidthPrecVisitorclIfEEmRT_, symObjAddr: 0xFD64, symBinAddr: 0x100015DD4, symSize: 0x1C }
  - { offsetInCU: 0x19F77, offset: 0x19F77, size: 0x8, addend: 0x0, symName: __ZNKSt8__format17_WidthPrecVisitorclIxEEmRT_, symObjAddr: 0xFD08, symBinAddr: 0x100015D78, symSize: 0x40 }
  - { offsetInCU: 0x19F7F, offset: 0x19F7F, size: 0x8, addend: 0x0, symName: __ZNKSt8__format17_WidthPrecVisitorclIyEEmRT_, symObjAddr: 0xFD48, symBinAddr: 0x100015DB8, symSize: 0x1C }
  - { offsetInCU: 0x19FC9, offset: 0x19FC9, size: 0x8, addend: 0x0, symName: __ZNKSt8__format17_WidthPrecVisitorclIjEEmRT_, symObjAddr: 0xFCE8, symBinAddr: 0x100015D58, symSize: 0x20 }
  - { offsetInCU: 0x19FD1, offset: 0x19FD1, size: 0x8, addend: 0x0, symName: __ZNKSt8__format17_WidthPrecVisitorclIxEEmRT_, symObjAddr: 0xFD08, symBinAddr: 0x100015D78, symSize: 0x40 }
  - { offsetInCU: 0x1A01B, offset: 0x1A01B, size: 0x8, addend: 0x0, symName: __ZNKSt8__format17_WidthPrecVisitorclIiEEmRT_, symObjAddr: 0xFCA4, symBinAddr: 0x100015D14, symSize: 0x44 }
  - { offsetInCU: 0x1A023, offset: 0x1A023, size: 0x8, addend: 0x0, symName: __ZNKSt8__format17_WidthPrecVisitorclIjEEmRT_, symObjAddr: 0xFCE8, symBinAddr: 0x100015D58, symSize: 0x20 }
  - { offsetInCU: 0x1A06D, offset: 0x1A06D, size: 0x8, addend: 0x0, symName: __ZNKSt8__format17_WidthPrecVisitorclIbEEmRT_, symObjAddr: 0xFC88, symBinAddr: 0x100015CF8, symSize: 0x1C }
  - { offsetInCU: 0x1A075, offset: 0x1A075, size: 0x8, addend: 0x0, symName: __ZNKSt8__format17_WidthPrecVisitorclIiEEmRT_, symObjAddr: 0xFCA4, symBinAddr: 0x100015D14, symSize: 0x44 }
  - { offsetInCU: 0x1A0C9, offset: 0x1A0C9, size: 0x8, addend: 0x0, symName: __ZNKSt8__format17_WidthPrecVisitorclISt9monostateEEmRT_, symObjAddr: 0xFC74, symBinAddr: 0x100015CE4, symSize: 0x14 }
  - { offsetInCU: 0x1A0D1, offset: 0x1A0D1, size: 0x8, addend: 0x0, symName: __ZNKSt8__format17_WidthPrecVisitorclIbEEmRT_, symObjAddr: 0xFC88, symBinAddr: 0x100015CF8, symSize: 0x1C }
  - { offsetInCU: 0x1A19C, offset: 0x1A19C, size: 0x8, addend: 0x0, symName: __ZSt7forwardINSt8__format17_WidthPrecVisitorEEOT_RNSt16remove_referenceIS2_E4typeE, symObjAddr: 0xFC60, symBinAddr: 0x100015CD0, symSize: 0x14 }
  - { offsetInCU: 0x1A1A4, offset: 0x1A1A4, size: 0x8, addend: 0x0, symName: __ZNKSt8__format17_WidthPrecVisitorclISt9monostateEEmRT_, symObjAddr: 0xFC74, symBinAddr: 0x100015CE4, symSize: 0x14 }
  - { offsetInCU: 0x1A261, offset: 0x1A261, size: 0x8, addend: 0x0, symName: __ZNSt6ranges14__copy_or_moveILb0EPcS1_NSt8__format10_Sink_iterIcEEEENSt13__conditionalIXT_EE4typeINS_13in_out_resultIT0_T2_EESB_EES9_T1_SA_, symObjAddr: 0xFBB0, symBinAddr: 0x100015C20, symSize: 0xB0 }
  - { offsetInCU: 0x1A269, offset: 0x1A269, size: 0x8, addend: 0x0, symName: __ZSt7forwardINSt8__format17_WidthPrecVisitorEEOT_RNSt16remove_referenceIS2_E4typeE, symObjAddr: 0xFC60, symBinAddr: 0x100015CD0, symSize: 0x14 }
  - { offsetInCU: 0x1A312, offset: 0x1A312, size: 0x8, addend: 0x0, symName: __ZSt4moveIRPcEONSt16remove_referenceIT_E4typeEOS3_, symObjAddr: 0xFB9C, symBinAddr: 0x100015C0C, symSize: 0x14 }
  - { offsetInCU: 0x1A31A, offset: 0x1A31A, size: 0x8, addend: 0x0, symName: __ZNSt6ranges14__copy_or_moveILb0EPcS1_NSt8__format10_Sink_iterIcEEEENSt13__conditionalIXT_EE4typeINS_13in_out_resultIT0_T2_EESB_EES9_T1_SA_, symObjAddr: 0xFBB0, symBinAddr: 0x100015C20, symSize: 0xB0 }
  - { offsetInCU: 0x1A324, offset: 0x1A324, size: 0x8, addend: 0x0, symName: __ZNSt17basic_string_viewIcSt11char_traitsIcEE13remove_suffixEm, symObjAddr: 0xFB6C, symBinAddr: 0x100015BDC, symSize: 0x30 }
  - { offsetInCU: 0x1A32C, offset: 0x1A32C, size: 0x8, addend: 0x0, symName: __ZSt4moveIRPcEONSt16remove_referenceIT_E4typeEOS3_, symObjAddr: 0xFB9C, symBinAddr: 0x100015C0C, symSize: 0x14 }
  - { offsetInCU: 0x1A369, offset: 0x1A369, size: 0x8, addend: 0x0, symName: __ZNSt8__format5_SinkIcE8_M_writeEc, symObjAddr: 0xFAB4, symBinAddr: 0x100015B24, symSize: 0xB8 }
  - { offsetInCU: 0x1A371, offset: 0x1A371, size: 0x8, addend: 0x0, symName: __ZNSt17basic_string_viewIcSt11char_traitsIcEE13remove_suffixEm, symObjAddr: 0xFB6C, symBinAddr: 0x100015BDC, symSize: 0x30 }
  - { offsetInCU: 0x1A505, offset: 0x1A505, size: 0x8, addend: 0x0, symName: __ZNSt8__format14__formatter_fpIcE23_S_resize_and_overwriteIcZNKS1_11_M_localizeESt17basic_string_viewIcSt11char_traitsIcEEcRKSt6localeEUlPcmE_EEvRNSt7__cxx1112basic_stringIT_S4_ISE_ESaISE_EEEmT0_, symObjAddr: 0xFA5C, symBinAddr: 0x100015ACC, symSize: 0x58 }
  - { offsetInCU: 0x1A50D, offset: 0x1A50D, size: 0x8, addend: 0x0, symName: __ZNSt8__format5_SinkIcE8_M_writeEc, symObjAddr: 0xFAB4, symBinAddr: 0x100015B24, symSize: 0xB8 }
  - { offsetInCU: 0x1A646, offset: 0x1A646, size: 0x8, addend: 0x0, symName: __ZNSt8__format14__int_from_argISt20basic_format_contextINS_10_Sink_iterIcEEcEEEmRKSt16basic_format_argIT_E, symObjAddr: 0xFA2C, symBinAddr: 0x100015A9C, symSize: 0x30 }
  - { offsetInCU: 0x1A64E, offset: 0x1A64E, size: 0x8, addend: 0x0, symName: __ZNSt8__format14__formatter_fpIcE23_S_resize_and_overwriteIcZNKS1_11_M_localizeESt17basic_string_viewIcSt11char_traitsIcEEcRKSt6localeEUlPcmE_EEvRNSt7__cxx1112basic_stringIT_S4_ISE_ESaISE_EEEmT0_, symObjAddr: 0xFA5C, symBinAddr: 0x100015ACC, symSize: 0x58 }
  - { offsetInCU: 0x1A6DB, offset: 0x1A6DB, size: 0x8, addend: 0x0, symName: __ZSt16visit_format_argINSt8__format17_WidthPrecVisitorESt20basic_format_contextINS0_10_Sink_iterIcEEcEEDcOT_St16basic_format_argIT0_E, symObjAddr: 0xF9F0, symBinAddr: 0x100015A60, symSize: 0x3C }
  - { offsetInCU: 0x1A6E3, offset: 0x1A6E3, size: 0x8, addend: 0x0, symName: __ZNSt8__format14__int_from_argISt20basic_format_contextINS_10_Sink_iterIcEEcEEEmRKSt16basic_format_argIT_E, symObjAddr: 0xFA2C, symBinAddr: 0x100015A9C, symSize: 0x30 }
  - { offsetInCU: 0x1A647, offset: 0x1A647, size: 0x8, addend: 0x0, symName: __ZNSt16basic_format_argISt20basic_format_contextINSt8__format10_Sink_iterIcEEcEE8_M_visitINS1_17_WidthPrecVisitorEEEDcOT_NS1_6_Arg_tE, symObjAddr: 0xF6E0, symBinAddr: 0x100015750, symSize: 0x310 }
  - { offsetInCU: 0x1A64F, offset: 0x1A64F, size: 0x8, addend: 0x0, symName: __ZSt16visit_format_argINSt8__format17_WidthPrecVisitorESt20basic_format_contextINS0_10_Sink_iterIcEEcEEDcOT_St16basic_format_argIT0_E, symObjAddr: 0xF9F0, symBinAddr: 0x100015A60, symSize: 0x3C }
  - { offsetInCU: 0x1A71C, offset: 0x1A71C, size: 0x8, addend: 0x0, symName: __ZSt14__add_groupingIcEPT_S1_S0_PKcmPKS0_S5_, symObjAddr: 0xF498, symBinAddr: 0x100015508, symSize: 0x248 }
  - { offsetInCU: 0x1A724, offset: 0x1A724, size: 0x8, addend: 0x0, symName: __ZNSt16basic_format_argISt20basic_format_contextINSt8__format10_Sink_iterIcEEcEE8_M_visitINS1_17_WidthPrecVisitorEEEDcOT_NS1_6_Arg_tE, symObjAddr: 0xF6E0, symBinAddr: 0x100015750, symSize: 0x310 }
  - { offsetInCU: 0x1A801, offset: 0x1A801, size: 0x8, addend: 0x0, symName: __ZNSt7__cxx1112basic_stringIcSt11char_traitsIcESaIcEE6assignEPKc, symObjAddr: 0xF44C, symBinAddr: 0x1000154BC, symSize: 0x4C }
  - { offsetInCU: 0x1A809, offset: 0x1A809, size: 0x8, addend: 0x0, symName: __ZSt14__add_groupingIcEPT_S1_S0_PKcmPKS0_S5_, symObjAddr: 0xF498, symBinAddr: 0x100015508, symSize: 0x248 }
  - { offsetInCU: 0x1A846, offset: 0x1A846, size: 0x8, addend: 0x0, symName: __ZNSt7__cxx1112basic_stringIcSt11char_traitsIcESaIcEE5clearEv, symObjAddr: 0xF428, symBinAddr: 0x100015498, symSize: 0x24 }
  - { offsetInCU: 0x1A84E, offset: 0x1A84E, size: 0x8, addend: 0x0, symName: __ZNSt7__cxx1112basic_stringIcSt11char_traitsIcESaIcEE6assignEPKc, symObjAddr: 0xF44C, symBinAddr: 0x1000154BC, symSize: 0x4C }
  - { offsetInCU: 0x1A877, offset: 0x1A877, size: 0x8, addend: 0x0, symName: __ZNSt7__cxx1112basic_stringIcSt11char_traitsIcESaIcEE6assignERKS4_, symObjAddr: 0xF21C, symBinAddr: 0x10001528C, symSize: 0x20C }
  - { offsetInCU: 0x1A87F, offset: 0x1A87F, size: 0x8, addend: 0x0, symName: __ZNSt7__cxx1112basic_stringIcSt11char_traitsIcESaIcEE5clearEv, symObjAddr: 0xF428, symBinAddr: 0x100015498, symSize: 0x24 }
  - { offsetInCU: 0x1AB1B, offset: 0x1AB1B, size: 0x8, addend: 0x0, symName: __ZSt11__addressofINSt7__cxx1112basic_stringIcSt11char_traitsIcESaIcEEEEPT_RS6_, symObjAddr: 0xF208, symBinAddr: 0x100015278, symSize: 0x14 }
  - { offsetInCU: 0x1AB23, offset: 0x1AB23, size: 0x8, addend: 0x0, symName: __ZNSt7__cxx1112basic_stringIcSt11char_traitsIcESaIcEE6assignERKS4_, symObjAddr: 0xF21C, symBinAddr: 0x10001528C, symSize: 0x20C }
  - { offsetInCU: 0x1AB27, offset: 0x1AB27, size: 0x8, addend: 0x0, symName: __ZNSt8__format15__formatter_intIcE15_S_to_characterIhEEcT_, symObjAddr: 0xF1D4, symBinAddr: 0x100015244, symSize: 0x34 }
  - { offsetInCU: 0x1AB2F, offset: 0x1AB2F, size: 0x8, addend: 0x0, symName: __ZSt11__addressofINSt7__cxx1112basic_stringIcSt11char_traitsIcESaIcEEEEPT_RS6_, symObjAddr: 0xF208, symBinAddr: 0x100015278, symSize: 0x14 }
  - { offsetInCU: 0x1AB67, offset: 0x1AB67, size: 0x8, addend: 0x0, symName: __ZN9__gnu_cxx17__normal_iteratorIPcSt4spanIcLm18446744073709551615EEEpLEl, symObjAddr: 0xF1A4, symBinAddr: 0x100015214, symSize: 0x30 }
  - { offsetInCU: 0x1AB6F, offset: 0x1AB6F, size: 0x8, addend: 0x0, symName: __ZNSt8__format15__formatter_intIcE15_S_to_characterIhEEcT_, symObjAddr: 0xF1D4, symBinAddr: 0x100015244, symSize: 0x34 }
  - { offsetInCU: 0x1ABAC, offset: 0x1ABAC, size: 0x8, addend: 0x0, symName: __ZNKSt17basic_string_viewIcSt11char_traitsIcEE4copyEPcmm, symObjAddr: 0xF110, symBinAddr: 0x100015180, symSize: 0x94 }
  - { offsetInCU: 0x1ABB4, offset: 0x1ABB4, size: 0x8, addend: 0x0, symName: __ZN9__gnu_cxx17__normal_iteratorIPcSt4spanIcLm18446744073709551615EEEpLEl, symObjAddr: 0xF1A4, symBinAddr: 0x100015214, symSize: 0x30 }
  - { offsetInCU: 0x1AD69, offset: 0x1AD69, size: 0x8, addend: 0x0, symName: __ZSt12__to_chars_iIoENSt9enable_ifIXsrSt5__or_IJS1_IJSt7is_sameINSt9remove_cvIT_E4typeEaES2_IS6_sES2_IS6_iES2_IS6_lES2_IS6_xEEES1_IJS2_IS6_hES2_IS6_tES2_IS6_jES2_IS6_mES2_IS6_yEEES2_IS4_nES2_IS4_oES2_IcS6_EEE5valueESt15to_chars_resultE4typeEPcSQ_S4_i, symObjAddr: 0xEF60, symBinAddr: 0x100014FD0, symSize: 0x1B0 }
  - { offsetInCU: 0x1AD71, offset: 0x1AD71, size: 0x8, addend: 0x0, symName: __ZNKSt17basic_string_viewIcSt11char_traitsIcEE4copyEPcmm, symObjAddr: 0xF110, symBinAddr: 0x100015180, symSize: 0x94 }
  - { offsetInCU: 0x1AD0C, offset: 0x1AD0C, size: 0x8, addend: 0x0, symName: __ZNSt7__cxx1112basic_stringIcSt11char_traitsIcESaIcEE14_M_replace_auxEmmmc, symObjAddr: 0xEE0C, symBinAddr: 0x100014E7C, symSize: 0x154 }
  - { offsetInCU: 0x1AD14, offset: 0x1AD14, size: 0x8, addend: 0x0, symName: __ZSt12__to_chars_iIoENSt9enable_ifIXsrSt5__or_IJS1_IJSt7is_sameINSt9remove_cvIT_E4typeEaES2_IS6_sES2_IS6_iES2_IS6_lES2_IS6_xEEES1_IJS2_IS6_hES2_IS6_tES2_IS6_jES2_IS6_mES2_IS6_yEEES2_IS4_nES2_IS4_oES2_IcS6_EEE5valueESt15to_chars_resultE4typeEPcSQ_S4_i, symObjAddr: 0xEF60, symBinAddr: 0x100014FD0, symSize: 0x1B0 }
  - { offsetInCU: 0x1ADF4, offset: 0x1ADF4, size: 0x8, addend: 0x0, symName: __ZNSt7__cxx1112basic_stringIcSt11char_traitsIcESaIcEE9push_backEc, symObjAddr: 0xED6C, symBinAddr: 0x100014DDC, symSize: 0xA0 }
  - { offsetInCU: 0x1ADFC, offset: 0x1ADFC, size: 0x8, addend: 0x0, symName: __ZNSt7__cxx1112basic_stringIcSt11char_traitsIcESaIcEE14_M_replace_auxEmmmc, symObjAddr: 0xEE0C, symBinAddr: 0x100014E7C, symSize: 0x154 }
  - { offsetInCU: 0x1AE5F, offset: 0x1AE5F, size: 0x8, addend: 0x0, symName: __ZNSt7__cxx1112basic_stringIcSt11char_traitsIcESaIcEE6assignISt17basic_string_viewIcS2_EEENSt9enable_ifIXsrSt6__and_IJSt14is_convertibleIRKT_S7_ESt6__not_ISA_IPSC_PKS4_EESF_ISA_ISD_PKcEEEE5valueERS4_E4typeESD_, symObjAddr: 0xED1C, symBinAddr: 0x100014D8C, symSize: 0x50 }
  - { offsetInCU: 0x1AE67, offset: 0x1AE67, size: 0x8, addend: 0x0, symName: __ZNSt7__cxx1112basic_stringIcSt11char_traitsIcESaIcEE9push_backEc, symObjAddr: 0xED6C, symBinAddr: 0x100014DDC, symSize: 0xA0 }
  - { offsetInCU: 0x1AEC6, offset: 0x1AEC6, size: 0x8, addend: 0x0, symName: __ZNSt7__cxx1112basic_stringIcSt11char_traitsIcESaIcEE6resizeEm, symObjAddr: 0xECF0, symBinAddr: 0x100014D60, symSize: 0x2C }
  - { offsetInCU: 0x1AECE, offset: 0x1AECE, size: 0x8, addend: 0x0, symName: __ZNSt7__cxx1112basic_stringIcSt11char_traitsIcESaIcEE6assignISt17basic_string_viewIcS2_EEENSt9enable_ifIXsrSt6__and_IJSt14is_convertibleIRKT_S7_ESt6__not_ISA_IPSC_PKS4_EESF_ISA_ISD_PKcEEEE5valueERS4_E4typeESD_, symObjAddr: 0xED1C, symBinAddr: 0x100014D8C, symSize: 0x50 }
  - { offsetInCU: 0x1AF9D, offset: 0x1AF9D, size: 0x8, addend: 0x0, symName: __ZSteqIcSt11char_traitsIcESaIcEEbRKNSt7__cxx1112basic_stringIT_T0_T1_EEPKS5_, symObjAddr: 0xEC7C, symBinAddr: 0x100014CEC, symSize: 0x74 }
  - { offsetInCU: 0x1AFA5, offset: 0x1AFA5, size: 0x8, addend: 0x0, symName: __ZNSt7__cxx1112basic_stringIcSt11char_traitsIcESaIcEE6resizeEm, symObjAddr: 0xECF0, symBinAddr: 0x100014D60, symSize: 0x2C }
  - { offsetInCU: 0x1AFD4, offset: 0x1AFD4, size: 0x8, addend: 0x0, symName: __ZNSt8__format10__put_signIhEEPcT_NS_5_SignES1_, symObjAddr: 0xEC1C, symBinAddr: 0x100014C8C, symSize: 0x60 }
  - { offsetInCU: 0x1AFDC, offset: 0x1AFDC, size: 0x8, addend: 0x0, symName: __ZSteqIcSt11char_traitsIcESaIcEEbRKNSt7__cxx1112basic_stringIT_T0_T1_EEPKS5_, symObjAddr: 0xEC7C, symBinAddr: 0x100014CEC, symSize: 0x74 }
  - { offsetInCU: 0x1B1AD, offset: 0x1B1AD, size: 0x8, addend: 0x0, symName: __ZNSt6ranges14__copy_or_moveILb0EN9__gnu_cxx17__normal_iteratorIPcSt4spanIcLm18446744073709551615EEEES6_NSt8__format10_Sink_iterIcEEEENSt13__conditionalIXT_EE4typeINS_13in_out_resultIT0_T2_EESG_EESE_T1_SF_, symObjAddr: 0xEBA0, symBinAddr: 0x100014C10, symSize: 0x7C }
  - { offsetInCU: 0x1B1B5, offset: 0x1B1B5, size: 0x8, addend: 0x0, symName: __ZNSt8__format10__put_signIhEEPcT_NS_5_SignES1_, symObjAddr: 0xEC1C, symBinAddr: 0x100014C8C, symSize: 0x60 }
  - { offsetInCU: 0x1B1BA, offset: 0x1B1BA, size: 0x8, addend: 0x0, symName: __ZSt4moveIRN9__gnu_cxx17__normal_iteratorIPcSt4spanIcLm18446744073709551615EEEEEONSt16remove_referenceIT_E4typeEOS8_, symObjAddr: 0xEB8C, symBinAddr: 0x100014BFC, symSize: 0x14 }
  - { offsetInCU: 0x1B1C2, offset: 0x1B1C2, size: 0x8, addend: 0x0, symName: __ZNSt6ranges14__copy_or_moveILb0EN9__gnu_cxx17__normal_iteratorIPcSt4spanIcLm18446744073709551615EEEES6_NSt8__format10_Sink_iterIcEEEENSt13__conditionalIXT_EE4typeINS_13in_out_resultIT0_T2_EESG_EESE_T1_SF_, symObjAddr: 0xEBA0, symBinAddr: 0x100014C10, symSize: 0x7C }
  - { offsetInCU: 0x1B144, offset: 0x1B144, size: 0x8, addend: 0x0, symName: __ZNSt8__format15__formatter_intIcE15_S_to_characterIoEEcT_, symObjAddr: 0xEB40, symBinAddr: 0x100014BB0, symSize: 0x4C }
  - { offsetInCU: 0x1B14C, offset: 0x1B14C, size: 0x8, addend: 0x0, symName: __ZSt4moveIRN9__gnu_cxx17__normal_iteratorIPcSt4spanIcLm18446744073709551615EEEEEONSt16remove_referenceIT_E4typeEOS8_, symObjAddr: 0xEB8C, symBinAddr: 0x100014BFC, symSize: 0x14 }
  - { offsetInCU: 0x1B184, offset: 0x1B184, size: 0x8, addend: 0x0, symName: __ZNSt8__format15__formatter_intIcE8to_charsIoEESt15to_chars_resultPcS4_T_i, symObjAddr: 0xEB0C, symBinAddr: 0x100014B7C, symSize: 0x34 }
  - { offsetInCU: 0x1B18C, offset: 0x1B18C, size: 0x8, addend: 0x0, symName: __ZNSt8__format15__formatter_intIcE15_S_to_characterIoEEcT_, symObjAddr: 0xEB40, symBinAddr: 0x100014BB0, symSize: 0x4C }
  - { offsetInCU: 0x1B200, offset: 0x1B200, size: 0x8, addend: 0x0, symName: __ZNSt8__format15__formatter_intIcE15_S_to_characterInEEcT_, symObjAddr: 0xEAC0, symBinAddr: 0x100014B30, symSize: 0x4C }
  - { offsetInCU: 0x1B208, offset: 0x1B208, size: 0x8, addend: 0x0, symName: __ZNSt8__format15__formatter_intIcE8to_charsIoEESt15to_chars_resultPcS4_T_i, symObjAddr: 0xEB0C, symBinAddr: 0x100014B7C, symSize: 0x34 }
  - { offsetInCU: 0x1B2AE, offset: 0x1B2AE, size: 0x8, addend: 0x0, symName: __ZNSt8__format14__formatter_fpIcE23_S_resize_and_overwriteIcZNKS1_6formatIeNS_10_Sink_iterIcEEEENSt20basic_format_contextIT0_cE8iteratorET_RS8_EUlPcmE_EEvRNSt7__cxx1112basic_stringISA_St11char_traitsISA_ESaISA_EEEmS7_, symObjAddr: 0xEA70, symBinAddr: 0x100014AE0, symSize: 0x50 }
  - { offsetInCU: 0x1B2B6, offset: 0x1B2B6, size: 0x8, addend: 0x0, symName: __ZNSt8__format15__formatter_intIcE15_S_to_characterInEEcT_, symObjAddr: 0xEAC0, symBinAddr: 0x100014B30, symSize: 0x4C }
  - { offsetInCU: 0x1B37D, offset: 0x1B37D, size: 0x8, addend: 0x0, symName: __ZNSt8__format14__formatter_fpIcE23_S_resize_and_overwriteIcZNKS1_6formatIdNS_10_Sink_iterIcEEEENSt20basic_format_contextIT0_cE8iteratorET_RS8_EUlPcmE_EEvRNSt7__cxx1112basic_stringISA_St11char_traitsISA_ESaISA_EEEmS7_, symObjAddr: 0xEA20, symBinAddr: 0x100014A90, symSize: 0x50 }
  - { offsetInCU: 0x1B385, offset: 0x1B385, size: 0x8, addend: 0x0, symName: __ZNSt8__format14__formatter_fpIcE23_S_resize_and_overwriteIcZNKS1_6formatIeNS_10_Sink_iterIcEEEENSt20basic_format_contextIT0_cE8iteratorET_RS8_EUlPcmE_EEvRNSt7__cxx1112basic_stringISA_St11char_traitsISA_ESaISA_EEEmS7_, symObjAddr: 0xEA70, symBinAddr: 0x100014AE0, symSize: 0x50 }
  - { offsetInCU: 0x1B4A5, offset: 0x1B4A5, size: 0x8, addend: 0x0, symName: __ZNSt8__format14__write_paddedINS_10_Sink_iterIcEEcEET_S3_St17basic_string_viewIT0_St11char_traitsIS5_EENS_6_AlignEmS5_, symObjAddr: 0xE8EC, symBinAddr: 0x10001495C, symSize: 0x134 }
  - { offsetInCU: 0x1B4AD, offset: 0x1B4AD, size: 0x8, addend: 0x0, symName: __ZNSt8__format14__formatter_fpIcE23_S_resize_and_overwriteIcZNKS1_6formatIdNS_10_Sink_iterIcEEEENSt20basic_format_contextIT0_cE8iteratorET_RS8_EUlPcmE_EEvRNSt7__cxx1112basic_stringISA_St11char_traitsISA_ESaISA_EEEmS7_, symObjAddr: 0xEA20, symBinAddr: 0x100014A90, symSize: 0x50 }
  - { offsetInCU: 0x1B628, offset: 0x1B628, size: 0x8, addend: 0x0, symName: __ZZNSt8__format14__write_paddedINS_10_Sink_iterIcEEcEET_S3_St17basic_string_viewIT0_St11char_traitsIS5_EENS_6_AlignEmS5_ENKUlmRS2_E_clEmSA_, symObjAddr: 0xE7F4, symBinAddr: 0x100014864, symSize: 0xF8 }
  - { offsetInCU: 0x1B630, offset: 0x1B630, size: 0x8, addend: 0x0, symName: __ZNSt8__format14__write_paddedINS_10_Sink_iterIcEEcEET_S3_St17basic_string_viewIT0_St11char_traitsIS5_EENS_6_AlignEmS5_, symObjAddr: 0xE8EC, symBinAddr: 0x10001495C, symSize: 0x134 }
  - { offsetInCU: 0x1B671, offset: 0x1B671, size: 0x8, addend: 0x0, symName: __ZNSt17basic_string_viewIcSt11char_traitsIcEE13remove_prefixEm, symObjAddr: 0xE76C, symBinAddr: 0x1000147DC, symSize: 0x88 }
  - { offsetInCU: 0x1B679, offset: 0x1B679, size: 0x8, addend: 0x0, symName: __ZZNSt8__format14__write_paddedINS_10_Sink_iterIcEEcEET_S3_St17basic_string_viewIT0_St11char_traitsIS5_EENS_6_AlignEmS5_ENKUlmRS2_E_clEmSA_, symObjAddr: 0xE7F4, symBinAddr: 0x100014864, symSize: 0xF8 }
  - { offsetInCU: 0x1B735, offset: 0x1B735, size: 0x8, addend: 0x0, symName: __ZNKSt8__format5_SpecIcE12_M_get_widthISt20basic_format_contextINS_10_Sink_iterIcEEcEEEmRT_, symObjAddr: 0xE6DC, symBinAddr: 0x10001474C, symSize: 0x90 }
  - { offsetInCU: 0x1B73D, offset: 0x1B73D, size: 0x8, addend: 0x0, symName: __ZNSt17basic_string_viewIcSt11char_traitsIcEE13remove_prefixEm, symObjAddr: 0xE76C, symBinAddr: 0x1000147DC, symSize: 0x88 }
  - { offsetInCU: 0x1B79C, offset: 0x1B79C, size: 0x8, addend: 0x0, symName: __ZNKSt8__format14__formatter_fpIcE11_M_localizeB5cxx11ESt17basic_string_viewIcSt11char_traitsIcEEcRKSt6locale, symObjAddr: 0xE4E4, symBinAddr: 0x100014554, symSize: 0x1F8 }
  - { offsetInCU: 0x1B7A4, offset: 0x1B7A4, size: 0x8, addend: 0x0, symName: __ZNKSt8__format5_SpecIcE12_M_get_widthISt20basic_format_contextINS_10_Sink_iterIcEEcEEEmRT_, symObjAddr: 0xE6DC, symBinAddr: 0x10001474C, symSize: 0x90 }
  - { offsetInCU: 0x1BA7C, offset: 0x1BA7C, size: 0x8, addend: 0x0, symName: __ZZNKSt8__format14__formatter_fpIcE11_M_localizeB5cxx11ESt17basic_string_viewIcSt11char_traitsIcEEcRKSt6localeENKUlPcmE_clES9_m, symObjAddr: 0xE384, symBinAddr: 0x1000143F4, symSize: 0x160 }
  - { offsetInCU: 0x1BA84, offset: 0x1BA84, size: 0x8, addend: 0x0, symName: __ZNKSt8__format14__formatter_fpIcE11_M_localizeB5cxx11ESt17basic_string_viewIcSt11char_traitsIcEEcRKSt6locale, symObjAddr: 0xE4E4, symBinAddr: 0x100014554, symSize: 0x1F8 }
  - { offsetInCU: 0x1BB70, offset: 0x1BB70, size: 0x8, addend: 0x0, symName: __ZNSt8__format14__formatter_fpIcE23_S_resize_and_overwriteIcZNKS1_6formatIfNS_10_Sink_iterIcEEEENSt20basic_format_contextIT0_cE8iteratorET_RS8_EUlPcmE_EEvRNSt7__cxx1112basic_stringISA_St11char_traitsISA_ESaISA_EEEmS7_, symObjAddr: 0xE334, symBinAddr: 0x1000143A4, symSize: 0x50 }
  - { offsetInCU: 0x1BB78, offset: 0x1BB78, size: 0x8, addend: 0x0, symName: __ZZNKSt8__format14__formatter_fpIcE11_M_localizeB5cxx11ESt17basic_string_viewIcSt11char_traitsIcEEcRKSt6localeENKUlPcmE_clES9_m, symObjAddr: 0xE384, symBinAddr: 0x1000143F4, symSize: 0x160 }
  - { offsetInCU: 0x1BBE5, offset: 0x1BBE5, size: 0x8, addend: 0x0, symName: __ZNKSt8__format5_SpecIcE16_M_get_precisionISt20basic_format_contextINS_10_Sink_iterIcEEcEEEmRT_, symObjAddr: 0xE2A0, symBinAddr: 0x100014310, symSize: 0x94 }
  - { offsetInCU: 0x1BBED, offset: 0x1BBED, size: 0x8, addend: 0x0, symName: __ZNSt8__format14__formatter_fpIcE23_S_resize_and_overwriteIcZNKS1_6formatIfNS_10_Sink_iterIcEEEENSt20basic_format_contextIT0_cE8iteratorET_RS8_EUlPcmE_EEvRNSt7__cxx1112basic_stringISA_St11char_traitsISA_ESaISA_EEEmS7_, symObjAddr: 0xE334, symBinAddr: 0x1000143A4, symSize: 0x50 }
  - { offsetInCU: 0x1BC4C, offset: 0x1BC4C, size: 0x8, addend: 0x0, symName: __ZNSt8__format15__formatter_intIcE15_S_to_characterIyEEcT_, symObjAddr: 0xE268, symBinAddr: 0x1000142D8, symSize: 0x38 }
  - { offsetInCU: 0x1BC54, offset: 0x1BC54, size: 0x8, addend: 0x0, symName: __ZNKSt8__format5_SpecIcE16_M_get_precisionISt20basic_format_contextINS_10_Sink_iterIcEEcEEEmRT_, symObjAddr: 0xE2A0, symBinAddr: 0x100014310, symSize: 0x94 }
  - { offsetInCU: 0x1BC8C, offset: 0x1BC8C, size: 0x8, addend: 0x0, symName: __ZNSt8__format15__formatter_intIcE8to_charsIyEESt15to_chars_resultPcS4_T_i, symObjAddr: 0xE234, symBinAddr: 0x1000142A4, symSize: 0x34 }
  - { offsetInCU: 0x1BC94, offset: 0x1BC94, size: 0x8, addend: 0x0, symName: __ZNSt8__format15__formatter_intIcE15_S_to_characterIyEEcT_, symObjAddr: 0xE268, symBinAddr: 0x1000142D8, symSize: 0x38 }
  - { offsetInCU: 0x1BD08, offset: 0x1BD08, size: 0x8, addend: 0x0, symName: __ZNSt8__format15__formatter_intIcE15_S_to_characterIxEEcT_, symObjAddr: 0xE1F0, symBinAddr: 0x100014260, symSize: 0x44 }
  - { offsetInCU: 0x1BD10, offset: 0x1BD10, size: 0x8, addend: 0x0, symName: __ZNSt8__format15__formatter_intIcE8to_charsIyEESt15to_chars_resultPcS4_T_i, symObjAddr: 0xE234, symBinAddr: 0x1000142A4, symSize: 0x34 }
  - { offsetInCU: 0x1BD48, offset: 0x1BD48, size: 0x8, addend: 0x0, symName: __ZNSt8__format15__formatter_intIcE15_S_to_characterIjEEcT_, symObjAddr: 0xE1B8, symBinAddr: 0x100014228, symSize: 0x38 }
  - { offsetInCU: 0x1BD50, offset: 0x1BD50, size: 0x8, addend: 0x0, symName: __ZNSt8__format15__formatter_intIcE15_S_to_characterIxEEcT_, symObjAddr: 0xE1F0, symBinAddr: 0x100014260, symSize: 0x44 }
  - { offsetInCU: 0x1BD88, offset: 0x1BD88, size: 0x8, addend: 0x0, symName: __ZNSt8__format15__formatter_intIcE8to_charsIjEESt15to_chars_resultPcS4_T_i, symObjAddr: 0xE184, symBinAddr: 0x1000141F4, symSize: 0x34 }
  - { offsetInCU: 0x1BD90, offset: 0x1BD90, size: 0x8, addend: 0x0, symName: __ZNSt8__format15__formatter_intIcE15_S_to_characterIjEEcT_, symObjAddr: 0xE1B8, symBinAddr: 0x100014228, symSize: 0x38 }
  - { offsetInCU: 0x1BE04, offset: 0x1BE04, size: 0x8, addend: 0x0, symName: __ZNSt8__format15__formatter_intIcE15_S_to_characterIiEEcT_, symObjAddr: 0xE140, symBinAddr: 0x1000141B0, symSize: 0x44 }
  - { offsetInCU: 0x1BE0C, offset: 0x1BE0C, size: 0x8, addend: 0x0, symName: __ZNSt8__format15__formatter_intIcE8to_charsIjEESt15to_chars_resultPcS4_T_i, symObjAddr: 0xE184, symBinAddr: 0x1000141F4, symSize: 0x34 }
  - { offsetInCU: 0x1BE57, offset: 0x1BE57, size: 0x8, addend: 0x0, symName: __ZNKSt8__format15__formatter_intIcE13_M_format_intINS_10_Sink_iterIcEEEENSt20basic_format_contextIT_cE8iteratorESt17basic_string_viewIcSt11char_traitsIcEEmRS7_, symObjAddr: 0xDD9C, symBinAddr: 0x100013E0C, symSize: 0x3A4 }
  - { offsetInCU: 0x1BE5F, offset: 0x1BE5F, size: 0x8, addend: 0x0, symName: __ZNSt8__format15__formatter_intIcE15_S_to_characterIiEEcT_, symObjAddr: 0xE140, symBinAddr: 0x1000141B0, symSize: 0x44 }
  - { offsetInCU: 0x1C0A4, offset: 0x1C0A4, size: 0x8, addend: 0x0, symName: __ZNSt8__format10__put_signIcEEPcT_NS_5_SignES1_, symObjAddr: 0xDD20, symBinAddr: 0x100013D90, symSize: 0x7C }
  - { offsetInCU: 0x1C0AC, offset: 0x1C0AC, size: 0x8, addend: 0x0, symName: __ZNKSt8__format15__formatter_intIcE13_M_format_intINS_10_Sink_iterIcEEEENSt20basic_format_contextIT_cE8iteratorESt17basic_string_viewIcSt11char_traitsIcEEmRS7_, symObjAddr: 0xDD9C, symBinAddr: 0x100013E0C, symSize: 0x3A4 }
  - { offsetInCU: 0x1C0D2, offset: 0x1C0D2, size: 0x8, addend: 0x0, symName: __ZNSt8__format15__formatter_intIcE8to_charsIhEESt15to_chars_resultPcS4_T_i, symObjAddr: 0xDCEC, symBinAddr: 0x100013D5C, symSize: 0x34 }
  - { offsetInCU: 0x1C0DA, offset: 0x1C0DA, size: 0x8, addend: 0x0, symName: __ZNSt8__format10__put_signIcEEPcT_NS_5_SignES1_, symObjAddr: 0xDD20, symBinAddr: 0x100013D90, symSize: 0x7C }
  - { offsetInCU: 0x1C14E, offset: 0x1C14E, size: 0x8, addend: 0x0, symName: __ZNSt8__format15__formatter_intIcE15_S_to_characterIcEEcT_, symObjAddr: 0xDCD8, symBinAddr: 0x100013D48, symSize: 0x14 }
  - { offsetInCU: 0x1C156, offset: 0x1C156, size: 0x8, addend: 0x0, symName: __ZNSt8__format15__formatter_intIcE8to_charsIhEESt15to_chars_resultPcS4_T_i, symObjAddr: 0xDCEC, symBinAddr: 0x100013D5C, symSize: 0x34 }
  - { offsetInCU: 0x1C18E, offset: 0x1C18E, size: 0x8, addend: 0x0, symName: __ZNSt7__cxx1112basic_stringIcSt11char_traitsIcESaIcEEaSEPKc, symObjAddr: 0xDCB4, symBinAddr: 0x100013D24, symSize: 0x24 }
  - { offsetInCU: 0x1C196, offset: 0x1C196, size: 0x8, addend: 0x0, symName: __ZNSt8__format15__formatter_intIcE15_S_to_characterIcEEcT_, symObjAddr: 0xDCD8, symBinAddr: 0x100013D48, symSize: 0x14 }
  - { offsetInCU: 0x1C1D3, offset: 0x1C1D3, size: 0x8, addend: 0x0, symName: __ZNSt7__cxx1112basic_stringIcSt11char_traitsIcESaIcEEaSEOS4_, symObjAddr: 0xDA5C, symBinAddr: 0x100013ACC, symSize: 0x258 }
  - { offsetInCU: 0x1C1DB, offset: 0x1C1DB, size: 0x8, addend: 0x0, symName: __ZNSt7__cxx1112basic_stringIcSt11char_traitsIcESaIcEEaSEPKc, symObjAddr: 0xDCB4, symBinAddr: 0x100013D24, symSize: 0x24 }
  - { offsetInCU: 0x1C2E3, offset: 0x1C2E3, size: 0x8, addend: 0x0, symName: __ZNSt20basic_format_contextINSt8__format10_Sink_iterIcEEcE6localeEv, symObjAddr: 0xDA20, symBinAddr: 0x100013A90, symSize: 0x3C }
  - { offsetInCU: 0x1C2EB, offset: 0x1C2EB, size: 0x8, addend: 0x0, symName: __ZNSt7__cxx1112basic_stringIcSt11char_traitsIcESaIcEEaSEOS4_, symObjAddr: 0xDA5C, symBinAddr: 0x100013ACC, symSize: 0x258 }
  - { offsetInCU: 0x1C314, offset: 0x1C314, size: 0x8, addend: 0x0, symName: __ZNKSt8__format15__formatter_intIcE6formatIhNS_10_Sink_iterIcEEEENSt20basic_format_contextIT0_cE8iteratorET_RS7_, symObjAddr: 0xD6D0, symBinAddr: 0x100013740, symSize: 0x350 }
  - { offsetInCU: 0x1C31C, offset: 0x1C31C, size: 0x8, addend: 0x0, symName: __ZNSt20basic_format_contextINSt8__format10_Sink_iterIcEEcE6localeEv, symObjAddr: 0xDA20, symBinAddr: 0x100013A90, symSize: 0x3C }
  - { offsetInCU: 0x1C45C, offset: 0x1C45C, size: 0x8, addend: 0x0, symName: __ZNKSt17basic_format_argsISt20basic_format_contextINSt8__format10_Sink_iterIcEEcEE7_M_typeEm, symObjAddr: 0xD684, symBinAddr: 0x1000136F4, symSize: 0x4C }
  - { offsetInCU: 0x1C464, offset: 0x1C464, size: 0x8, addend: 0x0, symName: __ZNKSt8__format15__formatter_intIcE6formatIhNS_10_Sink_iterIcEEEENSt20basic_format_contextIT0_cE8iteratorET_RS7_, symObjAddr: 0xD6D0, symBinAddr: 0x100013740, symSize: 0x350 }
  - { offsetInCU: 0x1C4D1, offset: 0x1C4D1, size: 0x8, addend: 0x0, symName: __ZNSt8__format5_SinkIcE8_M_writeESt17basic_string_viewIcSt11char_traitsIcEE, symObjAddr: 0xD4C0, symBinAddr: 0x100013530, symSize: 0x1C4 }
  - { offsetInCU: 0x1C4D9, offset: 0x1C4D9, size: 0x8, addend: 0x0, symName: __ZNKSt17basic_format_argsISt20basic_format_contextINSt8__format10_Sink_iterIcEEcEE7_M_typeEm, symObjAddr: 0xD684, symBinAddr: 0x1000136F4, symSize: 0x4C }
  - { offsetInCU: 0x1C5CF, offset: 0x1C5CF, size: 0x8, addend: 0x0, symName: __ZNSt8__format10__put_signIoEEPcT_NS_5_SignES1_, symObjAddr: 0xD460, symBinAddr: 0x1000134D0, symSize: 0x60 }
  - { offsetInCU: 0x1C5D7, offset: 0x1C5D7, size: 0x8, addend: 0x0, symName: __ZNSt8__format5_SinkIcE8_M_writeESt17basic_string_viewIcSt11char_traitsIcEE, symObjAddr: 0xD4C0, symBinAddr: 0x100013530, symSize: 0x1C4 }
  - { offsetInCU: 0x1C63A, offset: 0x1C63A, size: 0x8, addend: 0x0, symName: __ZNSt8__format10__put_signInEEPcT_NS_5_SignES1_, symObjAddr: 0xD3E4, symBinAddr: 0x100013454, symSize: 0x7C }
  - { offsetInCU: 0x1C642, offset: 0x1C642, size: 0x8, addend: 0x0, symName: __ZNSt8__format10__put_signIoEEPcT_NS_5_SignES1_, symObjAddr: 0xD460, symBinAddr: 0x1000134D0, symSize: 0x60 }
  - { offsetInCU: 0x1C664, offset: 0x1C664, size: 0x8, addend: 0x0, symName: __ZNKSt7__cxx1112basic_stringIcSt11char_traitsIcESaIcEEcvSt17basic_string_viewIcS2_EEv, symObjAddr: 0xD39C, symBinAddr: 0x10001340C, symSize: 0x48 }
  - { offsetInCU: 0x1C66C, offset: 0x1C66C, size: 0x8, addend: 0x0, symName: __ZNSt8__format10__put_signInEEPcT_NS_5_SignES1_, symObjAddr: 0xD3E4, symBinAddr: 0x100013454, symSize: 0x7C }
  - { offsetInCU: 0x1C695, offset: 0x1C695, size: 0x8, addend: 0x0, symName: __ZNSt7__cxx1112basic_stringIcSt11char_traitsIcESaIcEE6insertEmmc, symObjAddr: 0xD350, symBinAddr: 0x1000133C0, symSize: 0x4C }
  - { offsetInCU: 0x1C69D, offset: 0x1C69D, size: 0x8, addend: 0x0, symName: __ZNKSt7__cxx1112basic_stringIcSt11char_traitsIcESaIcEEcvSt17basic_string_viewIcS2_EEv, symObjAddr: 0xD39C, symBinAddr: 0x10001340C, symSize: 0x48 }
  - { offsetInCU: 0x1C702, offset: 0x1C702, size: 0x8, addend: 0x0, symName: __ZNSt7__cxx1112basic_stringIcSt11char_traitsIcESaIcEE6appendEmc, symObjAddr: 0xD314, symBinAddr: 0x100013384, symSize: 0x3C }
  - { offsetInCU: 0x1C70A, offset: 0x1C70A, size: 0x8, addend: 0x0, symName: __ZNSt7__cxx1112basic_stringIcSt11char_traitsIcESaIcEE6insertEmmc, symObjAddr: 0xD350, symBinAddr: 0x1000133C0, symSize: 0x4C }
  - { offsetInCU: 0x1C75B, offset: 0x1C75B, size: 0x8, addend: 0x0, symName: __ZNSt7__cxx1112basic_stringIcSt11char_traitsIcESaIcEEpLEc, symObjAddr: 0xD2EC, symBinAddr: 0x10001335C, symSize: 0x28 }
  - { offsetInCU: 0x1C763, offset: 0x1C763, size: 0x8, addend: 0x0, symName: __ZNSt7__cxx1112basic_stringIcSt11char_traitsIcESaIcEE6appendEmc, symObjAddr: 0xD314, symBinAddr: 0x100013384, symSize: 0x3C }
  - { offsetInCU: 0x1C7A0, offset: 0x1C7A0, size: 0x8, addend: 0x0, symName: __ZNSt7__cxx1112basic_stringIcSt11char_traitsIcESaIcEEaSISt17basic_string_viewIcS2_EEENSt9enable_ifIXsrSt6__and_IJSt14is_convertibleIRKT_S7_ESt6__not_ISA_IPSC_PKS4_EESF_ISA_ISD_PKcEEEE5valueERS4_E4typeESD_, symObjAddr: 0xD2C8, symBinAddr: 0x100013338, symSize: 0x24 }
  - { offsetInCU: 0x1C7A8, offset: 0x1C7A8, size: 0x8, addend: 0x0, symName: __ZNSt7__cxx1112basic_stringIcSt11char_traitsIcESaIcEEpLEc, symObjAddr: 0xD2EC, symBinAddr: 0x10001335C, symSize: 0x28 }
  - { offsetInCU: 0x1C7F2, offset: 0x1C7F2, size: 0x8, addend: 0x0, symName: __ZNKSt17basic_string_viewIcSt11char_traitsIcEE6substrEmm, symObjAddr: 0xD240, symBinAddr: 0x1000132B0, symSize: 0x88 }
  - { offsetInCU: 0x1C7FA, offset: 0x1C7FA, size: 0x8, addend: 0x0, symName: __ZNSt7__cxx1112basic_stringIcSt11char_traitsIcESaIcEEaSISt17basic_string_viewIcS2_EEENSt9enable_ifIXsrSt6__and_IJSt14is_convertibleIRKT_S7_ESt6__not_ISA_IPSC_PKS4_EESF_ISA_ISD_PKcEEEE5valueERS4_E4typeESD_, symObjAddr: 0xD2C8, symBinAddr: 0x100013338, symSize: 0x24 }
  - { offsetInCU: 0x1C891, offset: 0x1C891, size: 0x8, addend: 0x0, symName: __ZSt3minImERKT_S2_S2_, symObjAddr: 0xD208, symBinAddr: 0x100013278, symSize: 0x38 }
  - { offsetInCU: 0x1C899, offset: 0x1C899, size: 0x8, addend: 0x0, symName: __ZNKSt17basic_string_viewIcSt11char_traitsIcEE6substrEmm, symObjAddr: 0xD240, symBinAddr: 0x1000132B0, symSize: 0x88 }
  - { offsetInCU: 0x1C8E4, offset: 0x1C8E4, size: 0x8, addend: 0x0, symName: __ZSt3maxIiERKT_S2_S2_, symObjAddr: 0xD1D0, symBinAddr: 0x100013240, symSize: 0x38 }
  - { offsetInCU: 0x1C8EC, offset: 0x1C8EC, size: 0x8, addend: 0x0, symName: __ZSt3minImERKT_S2_S2_, symObjAddr: 0xD208, symBinAddr: 0x100013278, symSize: 0x38 }
  - { offsetInCU: 0x1C978, offset: 0x1C978, size: 0x8, addend: 0x0, symName: __ZNSt8__format10__put_signIyEEPcT_NS_5_SignES1_, symObjAddr: 0xD170, symBinAddr: 0x1000131E0, symSize: 0x60 }
  - { offsetInCU: 0x1C980, offset: 0x1C980, size: 0x8, addend: 0x0, symName: __ZSt3maxIiERKT_S2_S2_, symObjAddr: 0xD1D0, symBinAddr: 0x100013240, symSize: 0x38 }
  - { offsetInCU: 0x1C9E3, offset: 0x1C9E3, size: 0x8, addend: 0x0, symName: __ZNSt8__format10__put_signIxEEPcT_NS_5_SignES1_, symObjAddr: 0xD0F4, symBinAddr: 0x100013164, symSize: 0x7C }
  - { offsetInCU: 0x1C9EB, offset: 0x1C9EB, size: 0x8, addend: 0x0, symName: __ZNSt8__format10__put_signIyEEPcT_NS_5_SignES1_, symObjAddr: 0xD170, symBinAddr: 0x1000131E0, symSize: 0x60 }
  - { offsetInCU: 0x1CA56, offset: 0x1CA56, size: 0x8, addend: 0x0, symName: __ZNSt8__format10__put_signIjEEPcT_NS_5_SignES1_, symObjAddr: 0xD094, symBinAddr: 0x100013104, symSize: 0x60 }
  - { offsetInCU: 0x1CA5E, offset: 0x1CA5E, size: 0x8, addend: 0x0, symName: __ZNSt8__format10__put_signIxEEPcT_NS_5_SignES1_, symObjAddr: 0xD0F4, symBinAddr: 0x100013164, symSize: 0x7C }
  - { offsetInCU: 0x1CAC1, offset: 0x1CAC1, size: 0x8, addend: 0x0, symName: __ZNSt8__format10__put_signIiEEPcT_NS_5_SignES1_, symObjAddr: 0xD018, symBinAddr: 0x100013088, symSize: 0x7C }
  - { offsetInCU: 0x1CAC9, offset: 0x1CAC9, size: 0x8, addend: 0x0, symName: __ZNSt8__format10__put_signIjEEPcT_NS_5_SignES1_, symObjAddr: 0xD094, symBinAddr: 0x100013104, symSize: 0x60 }
  - { offsetInCU: 0x1CAF0, offset: 0x1CAF0, size: 0x8, addend: 0x0, symName: __ZNSt7__cxx1112basic_stringIcSt11char_traitsIcESaIcEE4dataEv, symObjAddr: 0xCFFC, symBinAddr: 0x10001306C, symSize: 0x1C }
  - { offsetInCU: 0x1CAF8, offset: 0x1CAF8, size: 0x8, addend: 0x0, symName: __ZNSt8__format10__put_signIiEEPcT_NS_5_SignES1_, symObjAddr: 0xD018, symBinAddr: 0x100013088, symSize: 0x7C }
  - { offsetInCU: 0x1CB44, offset: 0x1CB44, size: 0x8, addend: 0x0, symName: __ZNKSt6ranges9__copy_fnclIN9__gnu_cxx17__normal_iteratorIPcSt4spanIcLm18446744073709551615EEEES7_NSt8__format10_Sink_iterIcEEEENS_13in_out_resultIT_T1_EESC_T0_SD_, symObjAddr: 0xCFA4, symBinAddr: 0x100013014, symSize: 0x58 }
  - { offsetInCU: 0x1CB4C, offset: 0x1CB4C, size: 0x8, addend: 0x0, symName: __ZNSt7__cxx1112basic_stringIcSt11char_traitsIcESaIcEE4dataEv, symObjAddr: 0xCFFC, symBinAddr: 0x10001306C, symSize: 0x1C }
  - { offsetInCU: 0x1CBD8, offset: 0x1CBD8, size: 0x8, addend: 0x0, symName: __ZNKSt8__format15__formatter_intIcE6formatIoNS_10_Sink_iterIcEEEENSt20basic_format_contextIT0_cE8iteratorET_RS7_, symObjAddr: 0xCC48, symBinAddr: 0x100012CB8, symSize: 0x35C }
  - { offsetInCU: 0x1CBE0, offset: 0x1CBE0, size: 0x8, addend: 0x0, symName: __ZNKSt6ranges9__copy_fnclIN9__gnu_cxx17__normal_iteratorIPcSt4spanIcLm18446744073709551615EEEES7_NSt8__format10_Sink_iterIcEEEENS_13in_out_resultIT_T1_EESC_T0_SD_, symObjAddr: 0xCFA4, symBinAddr: 0x100013014, symSize: 0x58 }
  - { offsetInCU: 0x1CD20, offset: 0x1CD20, size: 0x8, addend: 0x0, symName: __ZNSt8__format15__formatter_intIcE8_M_parseIoEEPKcRSt26basic_format_parse_contextIcE, symObjAddr: 0xCC20, symBinAddr: 0x100012C90, symSize: 0x28 }
  - { offsetInCU: 0x1CD28, offset: 0x1CD28, size: 0x8, addend: 0x0, symName: __ZNKSt8__format15__formatter_intIcE6formatIoNS_10_Sink_iterIcEEEENSt20basic_format_contextIT0_cE8iteratorET_RS7_, symObjAddr: 0xCC48, symBinAddr: 0x100012CB8, symSize: 0x35C }
  - { offsetInCU: 0x1CD72, offset: 0x1CD72, size: 0x8, addend: 0x0, symName: __ZNKSt8__format15__formatter_intIcE6formatInNS_10_Sink_iterIcEEEENSt20basic_format_contextIT0_cE8iteratorET_RS7_, symObjAddr: 0xC89C, symBinAddr: 0x10001290C, symSize: 0x384 }
  - { offsetInCU: 0x1CD7A, offset: 0x1CD7A, size: 0x8, addend: 0x0, symName: __ZNSt8__format15__formatter_intIcE8_M_parseIoEEPKcRSt26basic_format_parse_contextIcE, symObjAddr: 0xCC20, symBinAddr: 0x100012C90, symSize: 0x28 }
  - { offsetInCU: 0x1CEA6, offset: 0x1CEA6, size: 0x8, addend: 0x0, symName: __ZNSt8__format15__formatter_intIcE8_M_parseInEEPKcRSt26basic_format_parse_contextIcE, symObjAddr: 0xC874, symBinAddr: 0x1000128E4, symSize: 0x28 }
  - { offsetInCU: 0x1CEAE, offset: 0x1CEAE, size: 0x8, addend: 0x0, symName: __ZNKSt8__format15__formatter_intIcE6formatInNS_10_Sink_iterIcEEEENSt20basic_format_contextIT0_cE8iteratorET_RS7_, symObjAddr: 0xC89C, symBinAddr: 0x10001290C, symSize: 0x384 }
  - { offsetInCU: 0x1D002, offset: 0x1D002, size: 0x8, addend: 0x0, symName: __ZNSt8__format22__write_padded_as_specIcNS_10_Sink_iterIcEEEET0_St17basic_string_viewINSt13type_identityIT_E4typeESt11char_traitsIS8_EEmRSt20basic_format_contextIS3_S6_ERKNS_5_SpecIS6_EENS_6_AlignE, symObjAddr: 0xC7B0, symBinAddr: 0x100012820, symSize: 0xC4 }
  - { offsetInCU: 0x1D00A, offset: 0x1D00A, size: 0x8, addend: 0x0, symName: __ZNSt8__format15__formatter_intIcE8_M_parseInEEPKcRSt26basic_format_parse_contextIcE, symObjAddr: 0xC874, symBinAddr: 0x1000128E4, symSize: 0x28 }
  - { offsetInCU: 0x1CFE8, offset: 0x1CFE8, size: 0x8, addend: 0x0, symName: __ZNKSt8__format15__formatter_strIcE6formatINS_10_Sink_iterIcEEEET_St17basic_string_viewIcSt11char_traitsIcEERSt20basic_format_contextIS5_cE, symObjAddr: 0xC6D0, symBinAddr: 0x100012740, symSize: 0xE0 }
  - { offsetInCU: 0x1CFF0, offset: 0x1CFF0, size: 0x8, addend: 0x0, symName: __ZNSt8__format22__write_padded_as_specIcNS_10_Sink_iterIcEEEET0_St17basic_string_viewINSt13type_identityIT_E4typeESt11char_traitsIS8_EEmRSt20basic_format_contextIS3_S6_ERKNS_5_SpecIS6_EENS_6_AlignE, symObjAddr: 0xC7B0, symBinAddr: 0x100012820, symSize: 0xC4 }
  - { offsetInCU: 0x1D08B, offset: 0x1D08B, size: 0x8, addend: 0x0, symName: __ZNKSt8__format14__formatter_fpIcE6formatIeNS_10_Sink_iterIcEEEENSt20basic_format_contextIT0_cE8iteratorET_RS7_, symObjAddr: 0xBCE4, symBinAddr: 0x100011D54, symSize: 0x9EC }
  - { offsetInCU: 0x1D093, offset: 0x1D093, size: 0x8, addend: 0x0, symName: __ZNKSt8__format15__formatter_strIcE6formatINS_10_Sink_iterIcEEEET_St17basic_string_viewIcSt11char_traitsIcEERSt20basic_format_contextIS5_cE, symObjAddr: 0xC6D0, symBinAddr: 0x100012740, symSize: 0xE0 }
  - { offsetInCU: 0x1D367, offset: 0x1D367, size: 0x8, addend: 0x0, symName: __ZZNKSt8__format14__formatter_fpIcE6formatIeNS_10_Sink_iterIcEEEENSt20basic_format_contextIT0_cE8iteratorET_RS7_ENKUlPcSB_E_clESB_SB_, symObjAddr: 0xBB88, symBinAddr: 0x100011BF8, symSize: 0xCC }
  - { offsetInCU: 0x1D36F, offset: 0x1D36F, size: 0x8, addend: 0x0, symName: __ZZNKSt8__format14__formatter_fpIcE6formatIeNS_10_Sink_iterIcEEEENSt20basic_format_contextIT0_cE8iteratorET_RS7_ENKUlPcmE_clESB_m, symObjAddr: 0xBC54, symBinAddr: 0x100011CC4, symSize: 0x90 }
  - { offsetInCU: 0x1D5E7, offset: 0x1D5E7, size: 0x8, addend: 0x0, symName: __ZZNKSt8__format14__formatter_fpIcE6formatIeNS_10_Sink_iterIcEEEENSt20basic_format_contextIT0_cE8iteratorET_RS7_ENKUlPcmE_clESB_m, symObjAddr: 0xBC54, symBinAddr: 0x100011CC4, symSize: 0x90 }
  - { offsetInCU: 0x1D5EF, offset: 0x1D5EF, size: 0x8, addend: 0x0, symName: __ZNKSt8__format14__formatter_fpIcE6formatIeNS_10_Sink_iterIcEEEENSt20basic_format_contextIT0_cE8iteratorET_RS7_, symObjAddr: 0xBCE4, symBinAddr: 0x100011D54, symSize: 0x9EC }
  - { offsetInCU: 0x1D77A, offset: 0x1D77A, size: 0x8, addend: 0x0, symName: __ZNKSt8__format14__formatter_fpIcE6formatIdNS_10_Sink_iterIcEEEENSt20basic_format_contextIT0_cE8iteratorET_RS7_, symObjAddr: 0xB19C, symBinAddr: 0x10001120C, symSize: 0x9EC }
  - { offsetInCU: 0x1D782, offset: 0x1D782, size: 0x8, addend: 0x0, symName: __ZZNKSt8__format14__formatter_fpIcE6formatIeNS_10_Sink_iterIcEEEENSt20basic_format_contextIT0_cE8iteratorET_RS7_ENKUlPcSB_E_clESB_SB_, symObjAddr: 0xBB88, symBinAddr: 0x100011BF8, symSize: 0xCC }
  - { offsetInCU: 0x1DA56, offset: 0x1DA56, size: 0x8, addend: 0x0, symName: __ZZNKSt8__format14__formatter_fpIcE6formatIdNS_10_Sink_iterIcEEEENSt20basic_format_contextIT0_cE8iteratorET_RS7_ENKUlPcSB_E_clESB_SB_, symObjAddr: 0xB040, symBinAddr: 0x1000110B0, symSize: 0xCC }
  - { offsetInCU: 0x1DA5E, offset: 0x1DA5E, size: 0x8, addend: 0x0, symName: __ZZNKSt8__format14__formatter_fpIcE6formatIdNS_10_Sink_iterIcEEEENSt20basic_format_contextIT0_cE8iteratorET_RS7_ENKUlPcmE_clESB_m, symObjAddr: 0xB10C, symBinAddr: 0x10001117C, symSize: 0x90 }
  - { offsetInCU: 0x1DCD6, offset: 0x1DCD6, size: 0x8, addend: 0x0, symName: __ZZNKSt8__format14__formatter_fpIcE6formatIdNS_10_Sink_iterIcEEEENSt20basic_format_contextIT0_cE8iteratorET_RS7_ENKUlPcmE_clESB_m, symObjAddr: 0xB10C, symBinAddr: 0x10001117C, symSize: 0x90 }
  - { offsetInCU: 0x1DCDE, offset: 0x1DCDE, size: 0x8, addend: 0x0, symName: __ZNKSt8__format14__formatter_fpIcE6formatIdNS_10_Sink_iterIcEEEENSt20basic_format_contextIT0_cE8iteratorET_RS7_, symObjAddr: 0xB19C, symBinAddr: 0x10001120C, symSize: 0x9EC }
  - { offsetInCU: 0x1DE69, offset: 0x1DE69, size: 0x8, addend: 0x0, symName: __ZNKSt8__format14__formatter_fpIcE6formatIfNS_10_Sink_iterIcEEEENSt20basic_format_contextIT0_cE8iteratorET_RS7_, symObjAddr: 0xA658, symBinAddr: 0x1000106C8, symSize: 0x9E8 }
  - { offsetInCU: 0x1DE71, offset: 0x1DE71, size: 0x8, addend: 0x0, symName: __ZZNKSt8__format14__formatter_fpIcE6formatIdNS_10_Sink_iterIcEEEENSt20basic_format_contextIT0_cE8iteratorET_RS7_ENKUlPcSB_E_clESB_SB_, symObjAddr: 0xB040, symBinAddr: 0x1000110B0, symSize: 0xCC }
  - { offsetInCU: 0x1E145, offset: 0x1E145, size: 0x8, addend: 0x0, symName: __ZZNKSt8__format14__formatter_fpIcE6formatIfNS_10_Sink_iterIcEEEENSt20basic_format_contextIT0_cE8iteratorET_RS7_ENKUlPcSB_E_clESB_SB_, symObjAddr: 0xA4FC, symBinAddr: 0x10001056C, symSize: 0xCC }
  - { offsetInCU: 0x1E14D, offset: 0x1E14D, size: 0x8, addend: 0x0, symName: __ZZNKSt8__format14__formatter_fpIcE6formatIfNS_10_Sink_iterIcEEEENSt20basic_format_contextIT0_cE8iteratorET_RS7_ENKUlPcmE_clESB_m, symObjAddr: 0xA5C8, symBinAddr: 0x100010638, symSize: 0x90 }
  - { offsetInCU: 0x1E3C5, offset: 0x1E3C5, size: 0x8, addend: 0x0, symName: __ZZNKSt8__format14__formatter_fpIcE6formatIfNS_10_Sink_iterIcEEEENSt20basic_format_contextIT0_cE8iteratorET_RS7_ENKUlPcmE_clESB_m, symObjAddr: 0xA5C8, symBinAddr: 0x100010638, symSize: 0x90 }
  - { offsetInCU: 0x1E3CD, offset: 0x1E3CD, size: 0x8, addend: 0x0, symName: __ZNKSt8__format14__formatter_fpIcE6formatIfNS_10_Sink_iterIcEEEENSt20basic_format_contextIT0_cE8iteratorET_RS7_, symObjAddr: 0xA658, symBinAddr: 0x1000106C8, symSize: 0x9E8 }
  - { offsetInCU: 0x1E558, offset: 0x1E558, size: 0x8, addend: 0x0, symName: __ZNKSt8__format15__formatter_intIcE6formatIyNS_10_Sink_iterIcEEEENSt20basic_format_contextIT0_cE8iteratorET_RS7_, symObjAddr: 0xA1AC, symBinAddr: 0x10001021C, symSize: 0x350 }
  - { offsetInCU: 0x1E560, offset: 0x1E560, size: 0x8, addend: 0x0, symName: __ZZNKSt8__format14__formatter_fpIcE6formatIfNS_10_Sink_iterIcEEEENSt20basic_format_contextIT0_cE8iteratorET_RS7_ENKUlPcSB_E_clESB_SB_, symObjAddr: 0xA4FC, symBinAddr: 0x10001056C, symSize: 0xCC }
  - { offsetInCU: 0x1E6A0, offset: 0x1E6A0, size: 0x8, addend: 0x0, symName: __ZNSt8__format15__formatter_intIcE8_M_parseIyEEPKcRSt26basic_format_parse_contextIcE, symObjAddr: 0xA184, symBinAddr: 0x1000101F4, symSize: 0x28 }
  - { offsetInCU: 0x1E6A8, offset: 0x1E6A8, size: 0x8, addend: 0x0, symName: __ZNKSt8__format15__formatter_intIcE6formatIyNS_10_Sink_iterIcEEEENSt20basic_format_contextIT0_cE8iteratorET_RS7_, symObjAddr: 0xA1AC, symBinAddr: 0x10001021C, symSize: 0x350 }
  - { offsetInCU: 0x1E6F2, offset: 0x1E6F2, size: 0x8, addend: 0x0, symName: __ZNKSt8__format15__formatter_intIcE6formatIxNS_10_Sink_iterIcEEEENSt20basic_format_contextIT0_cE8iteratorET_RS7_, symObjAddr: 0x9E18, symBinAddr: 0x10000FE88, symSize: 0x36C }
  - { offsetInCU: 0x1E6FA, offset: 0x1E6FA, size: 0x8, addend: 0x0, symName: __ZNSt8__format15__formatter_intIcE8_M_parseIyEEPKcRSt26basic_format_parse_contextIcE, symObjAddr: 0xA184, symBinAddr: 0x1000101F4, symSize: 0x28 }
  - { offsetInCU: 0x1E826, offset: 0x1E826, size: 0x8, addend: 0x0, symName: __ZNSt8__format15__formatter_intIcE8_M_parseIxEEPKcRSt26basic_format_parse_contextIcE, symObjAddr: 0x9DF0, symBinAddr: 0x10000FE60, symSize: 0x28 }
  - { offsetInCU: 0x1E82E, offset: 0x1E82E, size: 0x8, addend: 0x0, symName: __ZNKSt8__format15__formatter_intIcE6formatIxNS_10_Sink_iterIcEEEENSt20basic_format_contextIT0_cE8iteratorET_RS7_, symObjAddr: 0x9E18, symBinAddr: 0x10000FE88, symSize: 0x36C }
  - { offsetInCU: 0x1E878, offset: 0x1E878, size: 0x8, addend: 0x0, symName: __ZNKSt8__format15__formatter_intIcE6formatIjNS_10_Sink_iterIcEEEENSt20basic_format_contextIT0_cE8iteratorET_RS7_, symObjAddr: 0x9AA0, symBinAddr: 0x10000FB10, symSize: 0x350 }
  - { offsetInCU: 0x1E880, offset: 0x1E880, size: 0x8, addend: 0x0, symName: __ZNSt8__format15__formatter_intIcE8_M_parseIxEEPKcRSt26basic_format_parse_contextIcE, symObjAddr: 0x9DF0, symBinAddr: 0x10000FE60, symSize: 0x28 }
  - { offsetInCU: 0x1E9C0, offset: 0x1E9C0, size: 0x8, addend: 0x0, symName: __ZNKSt8__format15__formatter_intIcE6formatIiNS_10_Sink_iterIcEEEENSt20basic_format_contextIT0_cE8iteratorET_RS7_, symObjAddr: 0x9734, symBinAddr: 0x10000F7A4, symSize: 0x36C }
  - { offsetInCU: 0x1E9C8, offset: 0x1E9C8, size: 0x8, addend: 0x0, symName: __ZNKSt8__format15__formatter_intIcE6formatIjNS_10_Sink_iterIcEEEENSt20basic_format_contextIT0_cE8iteratorET_RS7_, symObjAddr: 0x9AA0, symBinAddr: 0x10000FB10, symSize: 0x350 }
  - { offsetInCU: 0x1EAF4, offset: 0x1EAF4, size: 0x8, addend: 0x0, symName: __ZNKSt8__format15__formatter_intIcE6formatIcNS_10_Sink_iterIcEEEENSt20basic_format_contextIT0_cE8iteratorET_RS7_, symObjAddr: 0x93C8, symBinAddr: 0x10000F438, symSize: 0x36C }
  - { offsetInCU: 0x1EAFC, offset: 0x1EAFC, size: 0x8, addend: 0x0, symName: __ZNKSt8__format15__formatter_intIcE6formatIiNS_10_Sink_iterIcEEEENSt20basic_format_contextIT0_cE8iteratorET_RS7_, symObjAddr: 0x9734, symBinAddr: 0x10000F7A4, symSize: 0x36C }
  - { offsetInCU: 0x1EC28, offset: 0x1EC28, size: 0x8, addend: 0x0, symName: __ZNKSt8__format15__formatter_intIcE19_M_format_characterINS_10_Sink_iterIcEEEENSt20basic_format_contextIT_cE8iteratorEcRS7_, symObjAddr: 0x9380, symBinAddr: 0x10000F3F0, symSize: 0x48 }
  - { offsetInCU: 0x1EC30, offset: 0x1EC30, size: 0x8, addend: 0x0, symName: __ZNKSt8__format15__formatter_intIcE6formatIcNS_10_Sink_iterIcEEEENSt20basic_format_contextIT0_cE8iteratorET_RS7_, symObjAddr: 0x93C8, symBinAddr: 0x10000F438, symSize: 0x36C }
  - { offsetInCU: 0x1EC8E, offset: 0x1EC8E, size: 0x8, addend: 0x0, symName: __ZNKSt8__format15__formatter_intIcE6formatINS_10_Sink_iterIcEEEENSt20basic_format_contextIT_cE8iteratorEbRS7_, symObjAddr: 0x91B8, symBinAddr: 0x10000F228, symSize: 0x1C8 }
  - { offsetInCU: 0x1EC96, offset: 0x1EC96, size: 0x8, addend: 0x0, symName: __ZNKSt8__format15__formatter_intIcE19_M_format_characterINS_10_Sink_iterIcEEEENSt20basic_format_contextIT_cE8iteratorEcRS7_, symObjAddr: 0x9380, symBinAddr: 0x10000F3F0, symSize: 0x48 }
  - { offsetInCU: 0x1ED60, offset: 0x1ED60, size: 0x8, addend: 0x0, symName: __ZNSt8__format15__formatter_intIcE8_M_parseIbEEPKcRSt26basic_format_parse_contextIcE, symObjAddr: 0x911C, symBinAddr: 0x10000F18C, symSize: 0x9C }
  - { offsetInCU: 0x1ED68, offset: 0x1ED68, size: 0x8, addend: 0x0, symName: __ZNKSt8__format15__formatter_intIcE6formatINS_10_Sink_iterIcEEEENSt20basic_format_contextIT_cE8iteratorEbRS7_, symObjAddr: 0x91B8, symBinAddr: 0x10000F228, symSize: 0x1C8 }
  - { offsetInCU: 0x1EEA8, offset: 0x1EEA8, size: 0x8, addend: 0x0, symName: __ZNKSt7__cxx1112basic_stringIcSt11char_traitsIcESaIcEE5emptyEv, symObjAddr: 0x90F4, symBinAddr: 0x10000F164, symSize: 0x28 }
  - { offsetInCU: 0x1EEB0, offset: 0x1EEB0, size: 0x8, addend: 0x0, symName: __ZNSt8__format15__formatter_intIcE8_M_parseIbEEPKcRSt26basic_format_parse_contextIcE, symObjAddr: 0x911C, symBinAddr: 0x10000F18C, symSize: 0x9C }
  - { offsetInCU: 0x1EED9, offset: 0x1EED9, size: 0x8, addend: 0x0, symName: __ZNKSt6ranges9__copy_fnclIRSt4spanIcLm18446744073709551615EENSt8__format10_Sink_iterIcEEEENS_13in_out_resultINSt13__conditionalIX14borrowed_rangeIT_EEE4typeIDTcl7__begincl7declvalIRSA_EEEENS_8danglingEEET0_EEOSA_SH_, symObjAddr: 0x908C, symBinAddr: 0x10000F0FC, symSize: 0x68 }
  - { offsetInCU: 0x1EEE1, offset: 0x1EEE1, size: 0x8, addend: 0x0, symName: __ZNKSt7__cxx1112basic_stringIcSt11char_traitsIcESaIcEE5emptyEv, symObjAddr: 0x90F4, symBinAddr: 0x10000F164, symSize: 0x28 }
  - { offsetInCU: 0x1EF4C, offset: 0x1EF4C, size: 0x8, addend: 0x0, symName: __ZNKSt4spanIcLm18446744073709551615EE3endEv, symObjAddr: 0x9048, symBinAddr: 0x10000F0B8, symSize: 0x44 }
  - { offsetInCU: 0x1EF54, offset: 0x1EF54, size: 0x8, addend: 0x0, symName: __ZNKSt6ranges9__copy_fnclIRSt4spanIcLm18446744073709551615EENSt8__format10_Sink_iterIcEEEENS_13in_out_resultINSt13__conditionalIX14borrowed_rangeIT_EEE4typeIDTcl7__begincl7declvalIRSA_EEEENS_8danglingEEET0_EEOSA_SH_, symObjAddr: 0x908C, symBinAddr: 0x10000F0FC, symSize: 0x68 }
  - { offsetInCU: 0x1EF90, offset: 0x1EF90, size: 0x8, addend: 0x0, symName: __ZNKSt9formatterIocE6formatINSt8__format10_Sink_iterIcEEEENSt20basic_format_contextIT_cE8iteratorEoRS7_, symObjAddr: 0x901C, symBinAddr: 0x10000F08C, symSize: 0x2C }
  - { offsetInCU: 0x1EF98, offset: 0x1EF98, size: 0x8, addend: 0x0, symName: __ZNKSt4spanIcLm18446744073709551615EE3endEv, symObjAddr: 0x9048, symBinAddr: 0x10000F0B8, symSize: 0x44 }
  - { offsetInCU: 0x1F036, offset: 0x1F036, size: 0x8, addend: 0x0, symName: __ZNKSt9formatterIncE6formatINSt8__format10_Sink_iterIcEEEENSt20basic_format_contextIT_cE8iteratorEnRS7_, symObjAddr: 0x8FF0, symBinAddr: 0x10000F060, symSize: 0x2C }
  - { offsetInCU: 0x1F03E, offset: 0x1F03E, size: 0x8, addend: 0x0, symName: __ZNKSt9formatterIocE6formatINSt8__format10_Sink_iterIcEEEENSt20basic_format_contextIT_cE8iteratorEoRS7_, symObjAddr: 0x901C, symBinAddr: 0x10000F08C, symSize: 0x2C }
  - { offsetInCU: 0x1F166, offset: 0x1F166, size: 0x8, addend: 0x0, symName: __ZNKSt9formatterIPKvcE6formatINSt8__format10_Sink_iterIcEEEENSt20basic_format_contextIT_cE8iteratorES1_RS9_, symObjAddr: 0x8F4C, symBinAddr: 0x10000EFBC, symSize: 0xA4 }
  - { offsetInCU: 0x1F16E, offset: 0x1F16E, size: 0x8, addend: 0x0, symName: __ZNKSt9formatterIncE6formatINSt8__format10_Sink_iterIcEEEENSt20basic_format_contextIT_cE8iteratorEnRS7_, symObjAddr: 0x8FF0, symBinAddr: 0x10000F060, symSize: 0x2C }
  - { offsetInCU: 0x1F286, offset: 0x1F286, size: 0x8, addend: 0x0, symName: __ZNSt9formatterIPKvcE5parseERSt26basic_format_parse_contextIcE, symObjAddr: 0x8E2C, symBinAddr: 0x10000EE9C, symSize: 0x120 }
  - { offsetInCU: 0x1F28E, offset: 0x1F28E, size: 0x8, addend: 0x0, symName: __ZNKSt9formatterIPKvcE6formatINSt8__format10_Sink_iterIcEEEENSt20basic_format_contextIT_cE8iteratorES1_RS9_, symObjAddr: 0x8F4C, symBinAddr: 0x10000EFBC, symSize: 0xA4 }
  - { offsetInCU: 0x1F428, offset: 0x1F428, size: 0x8, addend: 0x0, symName: __ZZNSt9formatterIPKvcE5parseERSt26basic_format_parse_contextIcEENKUlvE_clEv, symObjAddr: 0x8D94, symBinAddr: 0x10000EE04, symSize: 0x34 }
  - { offsetInCU: 0x1F430, offset: 0x1F430, size: 0x8, addend: 0x0, symName: __ZZNSt9formatterIPKvcE5parseERSt26basic_format_parse_contextIcEENKUlvE0_clEv, symObjAddr: 0x8DC8, symBinAddr: 0x10000EE38, symSize: 0x64 }
  - { offsetInCU: 0x1F59C, offset: 0x1F59C, size: 0x8, addend: 0x0, symName: __ZZNSt9formatterIPKvcE5parseERSt26basic_format_parse_contextIcEENKUlvE0_clEv, symObjAddr: 0x8DC8, symBinAddr: 0x10000EE38, symSize: 0x64 }
  - { offsetInCU: 0x1F5A4, offset: 0x1F5A4, size: 0x8, addend: 0x0, symName: __ZNSt9formatterIPKvcE5parseERSt26basic_format_parse_contextIcE, symObjAddr: 0x8E2C, symBinAddr: 0x10000EE9C, symSize: 0x120 }
  - { offsetInCU: 0x1F608, offset: 0x1F608, size: 0x8, addend: 0x0, symName: __ZNKSt9formatterISt17basic_string_viewIcSt11char_traitsIcEEcE6formatINSt8__format10_Sink_iterIcEEEENSt20basic_format_contextIT_cE8iteratorES3_RSB_, symObjAddr: 0x8D68, symBinAddr: 0x10000EDD8, symSize: 0x2C }
  - { offsetInCU: 0x1F610, offset: 0x1F610, size: 0x8, addend: 0x0, symName: __ZZNSt9formatterIPKvcE5parseERSt26basic_format_parse_contextIcEENKUlvE_clEv, symObjAddr: 0x8D94, symBinAddr: 0x10000EE04, symSize: 0x34 }
  - { offsetInCU: 0x1F6AE, offset: 0x1F6AE, size: 0x8, addend: 0x0, symName: __ZNKSt9formatterIPKccE6formatINSt8__format10_Sink_iterIcEEEENSt20basic_format_contextIT_cE8iteratorES1_RS9_, symObjAddr: 0x8D24, symBinAddr: 0x10000ED94, symSize: 0x44 }
  - { offsetInCU: 0x1F6B6, offset: 0x1F6B6, size: 0x8, addend: 0x0, symName: __ZNKSt9formatterISt17basic_string_viewIcSt11char_traitsIcEEcE6formatINSt8__format10_Sink_iterIcEEEENSt20basic_format_contextIT_cE8iteratorES3_RSB_, symObjAddr: 0x8D68, symBinAddr: 0x10000EDD8, symSize: 0x2C }
  - { offsetInCU: 0x1F727, offset: 0x1F727, size: 0x8, addend: 0x0, symName: __ZNKSt9formatterIecE6formatINSt8__format10_Sink_iterIcEEEENSt20basic_format_contextIT_cE8iteratorEeRS7_, symObjAddr: 0x8CF8, symBinAddr: 0x10000ED68, symSize: 0x2C }
  - { offsetInCU: 0x1F72F, offset: 0x1F72F, size: 0x8, addend: 0x0, symName: __ZNKSt9formatterIPKccE6formatINSt8__format10_Sink_iterIcEEEENSt20basic_format_contextIT_cE8iteratorES1_RS9_, symObjAddr: 0x8D24, symBinAddr: 0x10000ED94, symSize: 0x44 }
  - { offsetInCU: 0x1F7A0, offset: 0x1F7A0, size: 0x8, addend: 0x0, symName: __ZNKSt9formatterIdcE6formatINSt8__format10_Sink_iterIcEEEENSt20basic_format_contextIT_cE8iteratorEdRS7_, symObjAddr: 0x8CCC, symBinAddr: 0x10000ED3C, symSize: 0x2C }
  - { offsetInCU: 0x1F7A8, offset: 0x1F7A8, size: 0x8, addend: 0x0, symName: __ZNKSt9formatterIecE6formatINSt8__format10_Sink_iterIcEEEENSt20basic_format_contextIT_cE8iteratorEeRS7_, symObjAddr: 0x8CF8, symBinAddr: 0x10000ED68, symSize: 0x2C }
  - { offsetInCU: 0x1F819, offset: 0x1F819, size: 0x8, addend: 0x0, symName: __ZNKSt9formatterIfcE6formatINSt8__format10_Sink_iterIcEEEENSt20basic_format_contextIT_cE8iteratorEfRS7_, symObjAddr: 0x8CA0, symBinAddr: 0x10000ED10, symSize: 0x2C }
  - { offsetInCU: 0x1F821, offset: 0x1F821, size: 0x8, addend: 0x0, symName: __ZNKSt9formatterIdcE6formatINSt8__format10_Sink_iterIcEEEENSt20basic_format_contextIT_cE8iteratorEdRS7_, symObjAddr: 0x8CCC, symBinAddr: 0x10000ED3C, symSize: 0x2C }
  - { offsetInCU: 0x1F892, offset: 0x1F892, size: 0x8, addend: 0x0, symName: __ZNKSt9formatterIycE6formatINSt8__format10_Sink_iterIcEEEENSt20basic_format_contextIT_cE8iteratorEyRS7_, symObjAddr: 0x8C74, symBinAddr: 0x10000ECE4, symSize: 0x2C }
  - { offsetInCU: 0x1F89A, offset: 0x1F89A, size: 0x8, addend: 0x0, symName: __ZNKSt9formatterIfcE6formatINSt8__format10_Sink_iterIcEEEENSt20basic_format_contextIT_cE8iteratorEfRS7_, symObjAddr: 0x8CA0, symBinAddr: 0x10000ED10, symSize: 0x2C }
  - { offsetInCU: 0x1F938, offset: 0x1F938, size: 0x8, addend: 0x0, symName: __ZNKSt9formatterIxcE6formatINSt8__format10_Sink_iterIcEEEENSt20basic_format_contextIT_cE8iteratorExRS7_, symObjAddr: 0x8C48, symBinAddr: 0x10000ECB8, symSize: 0x2C }
  - { offsetInCU: 0x1F940, offset: 0x1F940, size: 0x8, addend: 0x0, symName: __ZNKSt9formatterIycE6formatINSt8__format10_Sink_iterIcEEEENSt20basic_format_contextIT_cE8iteratorEyRS7_, symObjAddr: 0x8C74, symBinAddr: 0x10000ECE4, symSize: 0x2C }
  - { offsetInCU: 0x1F9DE, offset: 0x1F9DE, size: 0x8, addend: 0x0, symName: __ZNKSt9formatterIjcE6formatINSt8__format10_Sink_iterIcEEEENSt20basic_format_contextIT_cE8iteratorEjRS7_, symObjAddr: 0x8C1C, symBinAddr: 0x10000EC8C, symSize: 0x2C }
  - { offsetInCU: 0x1F9E6, offset: 0x1F9E6, size: 0x8, addend: 0x0, symName: __ZNKSt9formatterIxcE6formatINSt8__format10_Sink_iterIcEEEENSt20basic_format_contextIT_cE8iteratorExRS7_, symObjAddr: 0x8C48, symBinAddr: 0x10000ECB8, symSize: 0x2C }
  - { offsetInCU: 0x1FA57, offset: 0x1FA57, size: 0x8, addend: 0x0, symName: __ZNKSt9formatterIicE6formatINSt8__format10_Sink_iterIcEEEENSt20basic_format_contextIT_cE8iteratorEiRS7_, symObjAddr: 0x8BF0, symBinAddr: 0x10000EC60, symSize: 0x2C }
  - { offsetInCU: 0x1FA5F, offset: 0x1FA5F, size: 0x8, addend: 0x0, symName: __ZNKSt9formatterIjcE6formatINSt8__format10_Sink_iterIcEEEENSt20basic_format_contextIT_cE8iteratorEjRS7_, symObjAddr: 0x8C1C, symBinAddr: 0x10000EC8C, symSize: 0x2C }
  - { offsetInCU: 0x1FAD0, offset: 0x1FAD0, size: 0x8, addend: 0x0, symName: __ZNKSt9formatterIccE6formatINSt8__format10_Sink_iterIcEEEENSt20basic_format_contextIT_cE8iteratorEcRS7_, symObjAddr: 0x8B6C, symBinAddr: 0x10000EBDC, symSize: 0x84 }
  - { offsetInCU: 0x1FAD8, offset: 0x1FAD8, size: 0x8, addend: 0x0, symName: __ZNKSt9formatterIicE6formatINSt8__format10_Sink_iterIcEEEENSt20basic_format_contextIT_cE8iteratorEiRS7_, symObjAddr: 0x8BF0, symBinAddr: 0x10000EC60, symSize: 0x2C }
  - { offsetInCU: 0x1FB49, offset: 0x1FB49, size: 0x8, addend: 0x0, symName: __ZNKSt9formatterIbcE6formatINSt8__format10_Sink_iterIcEEEENSt20basic_format_contextIT_cE8iteratorEbRS7_, symObjAddr: 0x8B40, symBinAddr: 0x10000EBB0, symSize: 0x2C }
  - { offsetInCU: 0x1FB51, offset: 0x1FB51, size: 0x8, addend: 0x0, symName: __ZNKSt9formatterIccE6formatINSt8__format10_Sink_iterIcEEEENSt20basic_format_contextIT_cE8iteratorEcRS7_, symObjAddr: 0x8B6C, symBinAddr: 0x10000EBDC, symSize: 0x84 }
  - { offsetInCU: 0x1FCEA, offset: 0x1FCEA, size: 0x8, addend: 0x0, symName: __ZSt7forwardIZNSt8__format19_Formatting_scannerINS0_10_Sink_iterIcEEcE13_M_format_argEmEUlRT_E_EOS5_RNSt16remove_referenceIS5_E4typeE, symObjAddr: 0x8B2C, symBinAddr: 0x10000EB9C, symSize: 0x14 }
  - { offsetInCU: 0x1FCF2, offset: 0x1FCF2, size: 0x8, addend: 0x0, symName: __ZNKSt9formatterIbcE6formatINSt8__format10_Sink_iterIcEEEENSt20basic_format_contextIT_cE8iteratorEbRS7_, symObjAddr: 0x8B40, symBinAddr: 0x10000EBB0, symSize: 0x2C }
  - { offsetInCU: 0x1FC3C, offset: 0x1FC3C, size: 0x8, addend: 0x0, symName: __ZNKSt20basic_format_contextINSt8__format10_Sink_iterIcEEcE3argEm, symObjAddr: 0x8A28, symBinAddr: 0x10000EA98, symSize: 0x104 }
  - { offsetInCU: 0x1FC44, offset: 0x1FC44, size: 0x8, addend: 0x0, symName: __ZSt7forwardIZNSt8__format19_Formatting_scannerINS0_10_Sink_iterIcEEcE13_M_format_argEmEUlRT_E_EOS5_RNSt16remove_referenceIS5_E4typeE, symObjAddr: 0x8B2C, symBinAddr: 0x10000EB9C, symSize: 0x14 }
  - { offsetInCU: 0x1FD0D, offset: 0x1FD0D, size: 0x8, addend: 0x0, symName: __ZNSt20basic_format_contextINSt8__format10_Sink_iterIcEEcE10advance_toES2_, symObjAddr: 0x89F4, symBinAddr: 0x10000EA64, symSize: 0x34 }
  - { offsetInCU: 0x1FD15, offset: 0x1FD15, size: 0x8, addend: 0x0, symName: __ZNKSt20basic_format_contextINSt8__format10_Sink_iterIcEEcE3argEm, symObjAddr: 0x8A28, symBinAddr: 0x10000EA98, symSize: 0x104 }
  - { offsetInCU: 0x1FDE7, offset: 0x1FDE7, size: 0x8, addend: 0x0, symName: __ZNSt8__format7__writeINS_10_Sink_iterIcEEcEET_S3_St17basic_string_viewIT0_St11char_traitsIS5_EE, symObjAddr: 0x89A0, symBinAddr: 0x10000EA10, symSize: 0x54 }
  - { offsetInCU: 0x1FDEF, offset: 0x1FDEF, size: 0x8, addend: 0x0, symName: __ZNSt20basic_format_contextINSt8__format10_Sink_iterIcEEcE10advance_toES2_, symObjAddr: 0x89F4, symBinAddr: 0x10000EA64, symSize: 0x34 }
  - { offsetInCU: 0x1FDF1, offset: 0x1FDF1, size: 0x8, addend: 0x0, symName: __ZNSt8__format10_Iter_sinkIcNS_10_Sink_iterIcEEE11_M_overflowEv, symObjAddr: 0x87F0, symBinAddr: 0x10000E860, symSize: 0x1B0 }
  - { offsetInCU: 0x1FDF9, offset: 0x1FDF9, size: 0x8, addend: 0x0, symName: __ZNSt8__format7__writeINS_10_Sink_iterIcEEcEET_S3_St17basic_string_viewIT0_St11char_traitsIS5_EE, symObjAddr: 0x89A0, symBinAddr: 0x10000EA10, symSize: 0x54 }
  - { offsetInCU: 0x1FEDA, offset: 0x1FEDA, size: 0x8, addend: 0x0, symName: __ZNKSt6ranges13__cust_access4_EndclIRSt4spanIcLm18446744073709551615EEEEDaOT_, symObjAddr: 0x87D0, symBinAddr: 0x10000E840, symSize: 0x20 }
  - { offsetInCU: 0x1FEE2, offset: 0x1FEE2, size: 0x8, addend: 0x0, symName: __ZNSt8__format10_Iter_sinkIcNS_10_Sink_iterIcEEE11_M_overflowEv, symObjAddr: 0x87F0, symBinAddr: 0x10000E860, symSize: 0x1B0 }
  - { offsetInCU: 0x1FF3F, offset: 0x1FF3F, size: 0x8, addend: 0x0, symName: __ZNKSt6ranges13__cust_access6_BeginclIRSt4spanIcLm18446744073709551615EEEEDaOT_, symObjAddr: 0x87B0, symBinAddr: 0x10000E820, symSize: 0x20 }
  - { offsetInCU: 0x1FF47, offset: 0x1FF47, size: 0x8, addend: 0x0, symName: __ZNKSt6ranges13__cust_access4_EndclIRSt4spanIcLm18446744073709551615EEEEDaOT_, symObjAddr: 0x87D0, symBinAddr: 0x10000E840, symSize: 0x20 }
  - { offsetInCU: 0x1FF91, offset: 0x1FF91, size: 0x8, addend: 0x0, symName: __ZNSt8__format19_Formatting_scannerINS_10_Sink_iterIcEEcE13_M_format_argEm, symObjAddr: 0x8758, symBinAddr: 0x10000E7C8, symSize: 0x58 }
  - { offsetInCU: 0x1FF99, offset: 0x1FF99, size: 0x8, addend: 0x0, symName: __ZNKSt6ranges13__cust_access6_BeginclIRSt4spanIcLm18446744073709551615EEEEDaOT_, symObjAddr: 0x87B0, symBinAddr: 0x10000E820, symSize: 0x20 }
  - { offsetInCU: 0x20074, offset: 0x20074, size: 0x8, addend: 0x0, symName: __ZZNSt8__format19_Formatting_scannerINS_10_Sink_iterIcEEcE13_M_format_argEmENKUlRT_E_clIoEEDaS5_, symObjAddr: 0x835C, symBinAddr: 0x10000E3CC, symSize: 0xAC }
  - { offsetInCU: 0x2007C, offset: 0x2007C, size: 0x8, addend: 0x0, symName: __ZNSt16basic_format_argISt20basic_format_contextINSt8__format10_Sink_iterIcEEcEE8_M_visitIZNS1_19_Formatting_scannerIS3_cE13_M_format_argEmEUlRT_E_EEDcOS9_NS1_6_Arg_tE, symObjAddr: 0x8408, symBinAddr: 0x10000E478, symSize: 0x310 }
  - { offsetInCU: 0x20178, offset: 0x20178, size: 0x8, addend: 0x0, symName: __ZZNSt8__format19_Formatting_scannerINS_10_Sink_iterIcEEcE13_M_format_argEmENKUlRT_E_clInEEDaS5_, symObjAddr: 0x82B0, symBinAddr: 0x10000E320, symSize: 0xAC }
  - { offsetInCU: 0x20180, offset: 0x20180, size: 0x8, addend: 0x0, symName: __ZZNSt8__format19_Formatting_scannerINS_10_Sink_iterIcEEcE13_M_format_argEmENKUlRT_E_clIoEEDaS5_, symObjAddr: 0x835C, symBinAddr: 0x10000E3CC, symSize: 0xAC }
  - { offsetInCU: 0x202A6, offset: 0x202A6, size: 0x8, addend: 0x0, symName: __ZZNSt8__format19_Formatting_scannerINS_10_Sink_iterIcEEcE13_M_format_argEmENKUlRT_E_clINSt16basic_format_argISt20basic_format_contextIS2_cEE6handleEEEDaS5_, symObjAddr: 0x8240, symBinAddr: 0x10000E2B0, symSize: 0x70 }
  - { offsetInCU: 0x202AE, offset: 0x202AE, size: 0x8, addend: 0x0, symName: __ZZNSt8__format19_Formatting_scannerINS_10_Sink_iterIcEEcE13_M_format_argEmENKUlRT_E_clInEEDaS5_, symObjAddr: 0x82B0, symBinAddr: 0x10000E320, symSize: 0xAC }
  - { offsetInCU: 0x20342, offset: 0x20342, size: 0x8, addend: 0x0, symName: __ZZNSt8__format19_Formatting_scannerINS_10_Sink_iterIcEEcE13_M_format_argEmENKUlRT_E_clIPKvEEDaS5_, symObjAddr: 0x81B0, symBinAddr: 0x10000E220, symSize: 0x90 }
  - { offsetInCU: 0x2034A, offset: 0x2034A, size: 0x8, addend: 0x0, symName: __ZZNSt8__format19_Formatting_scannerINS_10_Sink_iterIcEEcE13_M_format_argEmENKUlRT_E_clINSt16basic_format_argISt20basic_format_contextIS2_cEE6handleEEEDaS5_, symObjAddr: 0x8240, symBinAddr: 0x10000E2B0, symSize: 0x70 }
  - { offsetInCU: 0x20429, offset: 0x20429, size: 0x8, addend: 0x0, symName: __ZZNSt8__format19_Formatting_scannerINS_10_Sink_iterIcEEcE13_M_format_argEmENKUlRT_E_clISt17basic_string_viewIcSt11char_traitsIcEEEEDaS5_, symObjAddr: 0x810C, symBinAddr: 0x10000E17C, symSize: 0xA4 }
  - { offsetInCU: 0x20431, offset: 0x20431, size: 0x8, addend: 0x0, symName: __ZZNSt8__format19_Formatting_scannerINS_10_Sink_iterIcEEcE13_M_format_argEmENKUlRT_E_clIPKvEEDaS5_, symObjAddr: 0x81B0, symBinAddr: 0x10000E220, symSize: 0x90 }
  - { offsetInCU: 0x204F4, offset: 0x204F4, size: 0x8, addend: 0x0, symName: __ZZNSt8__format19_Formatting_scannerINS_10_Sink_iterIcEEcE13_M_format_argEmENKUlRT_E_clIPKcEEDaS5_, symObjAddr: 0x8070, symBinAddr: 0x10000E0E0, symSize: 0x9C }
  - { offsetInCU: 0x204FC, offset: 0x204FC, size: 0x8, addend: 0x0, symName: __ZZNSt8__format19_Formatting_scannerINS_10_Sink_iterIcEEcE13_M_format_argEmENKUlRT_E_clISt17basic_string_viewIcSt11char_traitsIcEEEEDaS5_, symObjAddr: 0x810C, symBinAddr: 0x10000E17C, symSize: 0xA4 }
  - { offsetInCU: 0x205E4, offset: 0x205E4, size: 0x8, addend: 0x0, symName: __ZZNSt8__format19_Formatting_scannerINS_10_Sink_iterIcEEcE13_M_format_argEmENKUlRT_E_clIeEEDaS5_, symObjAddr: 0x7FD4, symBinAddr: 0x10000E044, symSize: 0x9C }
  - { offsetInCU: 0x205EC, offset: 0x205EC, size: 0x8, addend: 0x0, symName: __ZZNSt8__format19_Formatting_scannerINS_10_Sink_iterIcEEcE13_M_format_argEmENKUlRT_E_clIPKcEEDaS5_, symObjAddr: 0x8070, symBinAddr: 0x10000E0E0, symSize: 0x9C }
  - { offsetInCU: 0x206D6, offset: 0x206D6, size: 0x8, addend: 0x0, symName: __ZZNSt8__format19_Formatting_scannerINS_10_Sink_iterIcEEcE13_M_format_argEmENKUlRT_E_clIdEEDaS5_, symObjAddr: 0x7F38, symBinAddr: 0x10000DFA8, symSize: 0x9C }
  - { offsetInCU: 0x206DE, offset: 0x206DE, size: 0x8, addend: 0x0, symName: __ZZNSt8__format19_Formatting_scannerINS_10_Sink_iterIcEEcE13_M_format_argEmENKUlRT_E_clIeEEDaS5_, symObjAddr: 0x7FD4, symBinAddr: 0x10000E044, symSize: 0x9C }
  - { offsetInCU: 0x207C8, offset: 0x207C8, size: 0x8, addend: 0x0, symName: __ZZNSt8__format19_Formatting_scannerINS_10_Sink_iterIcEEcE13_M_format_argEmENKUlRT_E_clIfEEDaS5_, symObjAddr: 0x7E9C, symBinAddr: 0x10000DF0C, symSize: 0x9C }
  - { offsetInCU: 0x207D0, offset: 0x207D0, size: 0x8, addend: 0x0, symName: __ZZNSt8__format19_Formatting_scannerINS_10_Sink_iterIcEEcE13_M_format_argEmENKUlRT_E_clIdEEDaS5_, symObjAddr: 0x7F38, symBinAddr: 0x10000DFA8, symSize: 0x9C }
  - { offsetInCU: 0x208BA, offset: 0x208BA, size: 0x8, addend: 0x0, symName: __ZZNSt8__format19_Formatting_scannerINS_10_Sink_iterIcEEcE13_M_format_argEmENKUlRT_E_clIyEEDaS5_, symObjAddr: 0x7E00, symBinAddr: 0x10000DE70, symSize: 0x9C }
  - { offsetInCU: 0x208C2, offset: 0x208C2, size: 0x8, addend: 0x0, symName: __ZZNSt8__format19_Formatting_scannerINS_10_Sink_iterIcEEcE13_M_format_argEmENKUlRT_E_clIfEEDaS5_, symObjAddr: 0x7E9C, symBinAddr: 0x10000DF0C, symSize: 0x9C }
  - { offsetInCU: 0x209AC, offset: 0x209AC, size: 0x8, addend: 0x0, symName: __ZZNSt8__format19_Formatting_scannerINS_10_Sink_iterIcEEcE13_M_format_argEmENKUlRT_E_clIxEEDaS5_, symObjAddr: 0x7D64, symBinAddr: 0x10000DDD4, symSize: 0x9C }
  - { offsetInCU: 0x209B4, offset: 0x209B4, size: 0x8, addend: 0x0, symName: __ZZNSt8__format19_Formatting_scannerINS_10_Sink_iterIcEEcE13_M_format_argEmENKUlRT_E_clIyEEDaS5_, symObjAddr: 0x7E00, symBinAddr: 0x10000DE70, symSize: 0x9C }
  - { offsetInCU: 0x20A9E, offset: 0x20A9E, size: 0x8, addend: 0x0, symName: __ZZNSt8__format19_Formatting_scannerINS_10_Sink_iterIcEEcE13_M_format_argEmENKUlRT_E_clIjEEDaS5_, symObjAddr: 0x7CC8, symBinAddr: 0x10000DD38, symSize: 0x9C }
  - { offsetInCU: 0x20AA6, offset: 0x20AA6, size: 0x8, addend: 0x0, symName: __ZZNSt8__format19_Formatting_scannerINS_10_Sink_iterIcEEcE13_M_format_argEmENKUlRT_E_clIxEEDaS5_, symObjAddr: 0x7D64, symBinAddr: 0x10000DDD4, symSize: 0x9C }
  - { offsetInCU: 0x20B90, offset: 0x20B90, size: 0x8, addend: 0x0, symName: __ZZNSt8__format19_Formatting_scannerINS_10_Sink_iterIcEEcE13_M_format_argEmENKUlRT_E_clIiEEDaS5_, symObjAddr: 0x7C2C, symBinAddr: 0x10000DC9C, symSize: 0x9C }
  - { offsetInCU: 0x20B98, offset: 0x20B98, size: 0x8, addend: 0x0, symName: __ZZNSt8__format19_Formatting_scannerINS_10_Sink_iterIcEEcE13_M_format_argEmENKUlRT_E_clIjEEDaS5_, symObjAddr: 0x7CC8, symBinAddr: 0x10000DD38, symSize: 0x9C }
  - { offsetInCU: 0x20C82, offset: 0x20C82, size: 0x8, addend: 0x0, symName: __ZZNSt8__format19_Formatting_scannerINS_10_Sink_iterIcEEcE13_M_format_argEmENKUlRT_E_clIcEEDaS5_, symObjAddr: 0x7B94, symBinAddr: 0x10000DC04, symSize: 0x98 }
  - { offsetInCU: 0x20C8A, offset: 0x20C8A, size: 0x8, addend: 0x0, symName: __ZZNSt8__format19_Formatting_scannerINS_10_Sink_iterIcEEcE13_M_format_argEmENKUlRT_E_clIiEEDaS5_, symObjAddr: 0x7C2C, symBinAddr: 0x10000DC9C, symSize: 0x9C }
  - { offsetInCU: 0x20D42, offset: 0x20D42, size: 0x8, addend: 0x0, symName: __ZZNSt8__format19_Formatting_scannerINS_10_Sink_iterIcEEcE13_M_format_argEmENKUlRT_E_clIbEEDaS5_, symObjAddr: 0x7AF0, symBinAddr: 0x10000DB60, symSize: 0xA4 }
  - { offsetInCU: 0x20D4A, offset: 0x20D4A, size: 0x8, addend: 0x0, symName: __ZZNSt8__format19_Formatting_scannerINS_10_Sink_iterIcEEcE13_M_format_argEmENKUlRT_E_clIcEEDaS5_, symObjAddr: 0x7B94, symBinAddr: 0x10000DC04, symSize: 0x98 }
  - { offsetInCU: 0x20E40, offset: 0x20E40, size: 0x8, addend: 0x0, symName: __ZZNSt8__format19_Formatting_scannerINS_10_Sink_iterIcEEcE13_M_format_argEmENKUlRT_E_clISt9monostateEEDaS5_, symObjAddr: 0x7ADC, symBinAddr: 0x10000DB4C, symSize: 0x14 }
  - { offsetInCU: 0x20E48, offset: 0x20E48, size: 0x8, addend: 0x0, symName: __ZZNSt8__format19_Formatting_scannerINS_10_Sink_iterIcEEcE13_M_format_argEmENKUlRT_E_clIbEEDaS5_, symObjAddr: 0x7AF0, symBinAddr: 0x10000DB60, symSize: 0xA4 }
  - { offsetInCU: 0x20E49, offset: 0x20E49, size: 0x8, addend: 0x0, symName: __ZZNSt8__format19_Formatting_scannerINS_10_Sink_iterIcEEcE13_M_format_argEmENKUlRT_E_clIbEEDaS5_, symObjAddr: 0x7AF0, symBinAddr: 0x10000DB60, symSize: 0xA4 }
  - { offsetInCU: 0x20FD2, offset: 0x20FD2, size: 0x8, addend: 0x0, symName: __ZSt16visit_format_argIZNSt8__format19_Formatting_scannerINS0_10_Sink_iterIcEEcE13_M_format_argEmEUlRT_E_St20basic_format_contextIS3_cEEDcOS5_St16basic_format_argIT0_E, symObjAddr: 0x8718, symBinAddr: 0x10000E788, symSize: 0x40 }
  - { offsetInCU: 0x20FDA, offset: 0x20FDA, size: 0x8, addend: 0x0, symName: __ZNSt8__format19_Formatting_scannerINS_10_Sink_iterIcEEcE13_M_format_argEm, symObjAddr: 0x8758, symBinAddr: 0x10000E7C8, symSize: 0x58 }
  - { offsetInCU: 0x20EBF, offset: 0x20EBF, size: 0x8, addend: 0x0, symName: __ZNSt16basic_format_argISt20basic_format_contextINSt8__format10_Sink_iterIcEEcEE8_M_visitIZNS1_19_Formatting_scannerIS3_cE13_M_format_argEmEUlRT_E_EEDcOS9_NS1_6_Arg_tE, symObjAddr: 0x8408, symBinAddr: 0x10000E478, symSize: 0x310 }
  - { offsetInCU: 0x20EC7, offset: 0x20EC7, size: 0x8, addend: 0x0, symName: __ZSt16visit_format_argIZNSt8__format19_Formatting_scannerINS0_10_Sink_iterIcEEcE13_M_format_argEmEUlRT_E_St20basic_format_contextIS3_cEEDcOS5_St16basic_format_argIT0_E, symObjAddr: 0x8718, symBinAddr: 0x10000E788, symSize: 0x40 }
  - { offsetInCU: 0x20F57, offset: 0x20F57, size: 0x8, addend: 0x0, symName: __ZNSt8__format19_Formatting_scannerINS_10_Sink_iterIcEEcE11_M_on_charsEPKc, symObjAddr: 0x7A78, symBinAddr: 0x10000DAE8, symSize: 0x64 }
  - { offsetInCU: 0x20F5F, offset: 0x20F5F, size: 0x8, addend: 0x0, symName: __ZZNSt8__format19_Formatting_scannerINS_10_Sink_iterIcEEcE13_M_format_argEmENKUlRT_E_clISt9monostateEEDaS5_, symObjAddr: 0x7ADC, symBinAddr: 0x10000DB4C, symSize: 0x14 }
  - { offsetInCU: 0x20FD9, offset: 0x20FD9, size: 0x8, addend: 0x0, symName: __Z41__static_initialization_and_destruction_0v, symObjAddr: 0x7A3C, symBinAddr: 0x10000DAAC, symSize: 0x3C }
  - { offsetInCU: 0x20FE1, offset: 0x20FE1, size: 0x8, addend: 0x0, symName: __ZNSt8__format19_Formatting_scannerINS_10_Sink_iterIcEEcE11_M_on_charsEPKc, symObjAddr: 0x7A78, symBinAddr: 0x10000DAE8, symSize: 0x64 }
  - { offsetInCU: 0x2129D, offset: 0x2129D, size: 0x8, addend: 0x0, symName: __ZNSt16basic_format_argISt20basic_format_contextINSt8__format10_Sink_iterIcEEcEE6_M_setIjEEvT_, symObjAddr: 0x79F0, symBinAddr: 0x10000DA60, symSize: 0x4C }
  - { offsetInCU: 0x212A5, offset: 0x212A5, size: 0x8, addend: 0x0, symName: __Z41__static_initialization_and_destruction_0v, symObjAddr: 0x7A3C, symBinAddr: 0x10000DAAC, symSize: 0x3C }
  - { offsetInCU: 0x2134C, offset: 0x2134C, size: 0x8, addend: 0x0, symName: __ZNSt16basic_format_argISt20basic_format_contextINSt8__format10_Sink_iterIcEEcEE6_M_setIeEEvT_, symObjAddr: 0x79A4, symBinAddr: 0x10000DA14, symSize: 0x4C }
  - { offsetInCU: 0x21354, offset: 0x21354, size: 0x8, addend: 0x0, symName: __ZNSt16basic_format_argISt20basic_format_contextINSt8__format10_Sink_iterIcEEcEE6_M_setIjEEvT_, symObjAddr: 0x79F0, symBinAddr: 0x10000DA60, symSize: 0x4C }
  - { offsetInCU: 0x213FB, offset: 0x213FB, size: 0x8, addend: 0x0, symName: __ZNSt16basic_format_argISt20basic_format_contextINSt8__format10_Sink_iterIcEEcEE6_M_setIdEEvT_, symObjAddr: 0x7958, symBinAddr: 0x10000D9C8, symSize: 0x4C }
  - { offsetInCU: 0x21403, offset: 0x21403, size: 0x8, addend: 0x0, symName: __ZNSt16basic_format_argISt20basic_format_contextINSt8__format10_Sink_iterIcEEcEE6_M_setIeEEvT_, symObjAddr: 0x79A4, symBinAddr: 0x10000DA14, symSize: 0x4C }
  - { offsetInCU: 0x214AA, offset: 0x214AA, size: 0x8, addend: 0x0, symName: __ZNSt16basic_format_argISt20basic_format_contextINSt8__format10_Sink_iterIcEEcEE6_M_setIfEEvT_, symObjAddr: 0x790C, symBinAddr: 0x10000D97C, symSize: 0x4C }
  - { offsetInCU: 0x214B2, offset: 0x214B2, size: 0x8, addend: 0x0, symName: __ZNSt16basic_format_argISt20basic_format_contextINSt8__format10_Sink_iterIcEEcEE6_M_setIdEEvT_, symObjAddr: 0x7958, symBinAddr: 0x10000D9C8, symSize: 0x4C }
  - { offsetInCU: 0x21559, offset: 0x21559, size: 0x8, addend: 0x0, symName: __ZNSt16basic_format_argISt20basic_format_contextINSt8__format10_Sink_iterIcEEcEE6_M_setIxEEvT_, symObjAddr: 0x78C0, symBinAddr: 0x10000D930, symSize: 0x4C }
  - { offsetInCU: 0x21561, offset: 0x21561, size: 0x8, addend: 0x0, symName: __ZNSt16basic_format_argISt20basic_format_contextINSt8__format10_Sink_iterIcEEcEE6_M_setIfEEvT_, symObjAddr: 0x790C, symBinAddr: 0x10000D97C, symSize: 0x4C }
  - { offsetInCU: 0x21608, offset: 0x21608, size: 0x8, addend: 0x0, symName: __ZNSt16basic_format_argISt20basic_format_contextINSt8__format10_Sink_iterIcEEcEE6_M_setIiEEvT_, symObjAddr: 0x7874, symBinAddr: 0x10000D8E4, symSize: 0x4C }
  - { offsetInCU: 0x21610, offset: 0x21610, size: 0x8, addend: 0x0, symName: __ZNSt16basic_format_argISt20basic_format_contextINSt8__format10_Sink_iterIcEEcEE6_M_setIxEEvT_, symObjAddr: 0x78C0, symBinAddr: 0x10000D930, symSize: 0x4C }
  - { offsetInCU: 0x216B7, offset: 0x216B7, size: 0x8, addend: 0x0, symName: __ZNSt15__new_allocatorIcE8allocateEmPKv, symObjAddr: 0x7810, symBinAddr: 0x10000D880, symSize: 0x64 }
  - { offsetInCU: 0x216BF, offset: 0x216BF, size: 0x8, addend: 0x0, symName: __ZNSt16basic_format_argISt20basic_format_contextINSt8__format10_Sink_iterIcEEcEE6_M_setIiEEvT_, symObjAddr: 0x7874, symBinAddr: 0x10000D8E4, symSize: 0x4C }
  - { offsetInCU: 0x217DB, offset: 0x217DB, size: 0x8, addend: 0x0, symName: __ZNSt16basic_format_argISt20basic_format_contextINSt8__format10_Sink_iterIcEEcEEC1IjEERT_, symObjAddr: 0x77D4, symBinAddr: 0x10000D844, symSize: 0x3C }
  - { offsetInCU: 0x217E3, offset: 0x217E3, size: 0x8, addend: 0x0, symName: __ZNSt15__new_allocatorIcE8allocateEmPKv, symObjAddr: 0x7810, symBinAddr: 0x10000D880, symSize: 0x64 }
  - { offsetInCU: 0x218AD, offset: 0x218AD, size: 0x8, addend: 0x0, symName: __ZNSt16basic_format_argISt20basic_format_contextINSt8__format10_Sink_iterIcEEcEEC1IeEERT_, symObjAddr: 0x779C, symBinAddr: 0x10000D80C, symSize: 0x38 }
  - { offsetInCU: 0x218B5, offset: 0x218B5, size: 0x8, addend: 0x0, symName: __ZNSt16basic_format_argISt20basic_format_contextINSt8__format10_Sink_iterIcEEcEEC1IjEERT_, symObjAddr: 0x77D4, symBinAddr: 0x10000D844, symSize: 0x3C }
  - { offsetInCU: 0x2197F, offset: 0x2197F, size: 0x8, addend: 0x0, symName: __ZNSt16basic_format_argISt20basic_format_contextINSt8__format10_Sink_iterIcEEcEEC1IdEERT_, symObjAddr: 0x7764, symBinAddr: 0x10000D7D4, symSize: 0x38 }
  - { offsetInCU: 0x21987, offset: 0x21987, size: 0x8, addend: 0x0, symName: __ZNSt16basic_format_argISt20basic_format_contextINSt8__format10_Sink_iterIcEEcEEC1IeEERT_, symObjAddr: 0x779C, symBinAddr: 0x10000D80C, symSize: 0x38 }
  - { offsetInCU: 0x21A51, offset: 0x21A51, size: 0x8, addend: 0x0, symName: __ZNSt16basic_format_argISt20basic_format_contextINSt8__format10_Sink_iterIcEEcEEC1IfEERT_, symObjAddr: 0x772C, symBinAddr: 0x10000D79C, symSize: 0x38 }
  - { offsetInCU: 0x21A59, offset: 0x21A59, size: 0x8, addend: 0x0, symName: __ZNSt16basic_format_argISt20basic_format_contextINSt8__format10_Sink_iterIcEEcEEC1IdEERT_, symObjAddr: 0x7764, symBinAddr: 0x10000D7D4, symSize: 0x38 }
  - { offsetInCU: 0x21B23, offset: 0x21B23, size: 0x8, addend: 0x0, symName: __ZNSt16basic_format_argISt20basic_format_contextINSt8__format10_Sink_iterIcEEcEEC1IlEERT_, symObjAddr: 0x76F0, symBinAddr: 0x10000D760, symSize: 0x3C }
  - { offsetInCU: 0x21B2B, offset: 0x21B2B, size: 0x8, addend: 0x0, symName: __ZNSt16basic_format_argISt20basic_format_contextINSt8__format10_Sink_iterIcEEcEEC1IfEERT_, symObjAddr: 0x772C, symBinAddr: 0x10000D79C, symSize: 0x38 }
  - { offsetInCU: 0x21BF5, offset: 0x21BF5, size: 0x8, addend: 0x0, symName: __ZNSt16basic_format_argISt20basic_format_contextINSt8__format10_Sink_iterIcEEcEEC1IiEERT_, symObjAddr: 0x76B4, symBinAddr: 0x10000D724, symSize: 0x3C }
  - { offsetInCU: 0x21BFD, offset: 0x21BFD, size: 0x8, addend: 0x0, symName: __ZNSt16basic_format_argISt20basic_format_contextINSt8__format10_Sink_iterIcEEcEEC1IlEERT_, symObjAddr: 0x76F0, symBinAddr: 0x10000D760, symSize: 0x3C }
  - { offsetInCU: 0x21CD1, offset: 0x21CD1, size: 0x8, addend: 0x0, symName: __ZNSt16basic_format_argISt20basic_format_contextINSt8__format10_Sink_iterIcEEcEEC1IsEERT_, symObjAddr: 0x7678, symBinAddr: 0x10000D6E8, symSize: 0x3C }
  - { offsetInCU: 0x21CD9, offset: 0x21CD9, size: 0x8, addend: 0x0, symName: __ZNSt16basic_format_argISt20basic_format_contextINSt8__format10_Sink_iterIcEEcEEC1IiEERT_, symObjAddr: 0x76B4, symBinAddr: 0x10000D724, symSize: 0x3C }
  - { offsetInCU: 0x21E24, offset: 0x21E24, size: 0x8, addend: 0x0, symName: __ZSt12__to_addressIcEPT_S1_, symObjAddr: 0x7664, symBinAddr: 0x10000D6D4, symSize: 0x14 }
  - { offsetInCU: 0x21E2C, offset: 0x21E2C, size: 0x8, addend: 0x0, symName: __ZNSt16basic_format_argISt20basic_format_contextINSt8__format10_Sink_iterIcEEcEEC1IsEERT_, symObjAddr: 0x7678, symBinAddr: 0x10000D6E8, symSize: 0x3C }
  - { offsetInCU: 0x21E3D, offset: 0x21E3D, size: 0x8, addend: 0x0, symName: __ZNKSt4lessIPKcEclES1_S1_, symObjAddr: 0x7608, symBinAddr: 0x10000D678, symSize: 0x5C }
  - { offsetInCU: 0x21E45, offset: 0x21E45, size: 0x8, addend: 0x0, symName: __ZSt12__to_addressIcEPT_S1_, symObjAddr: 0x7664, symBinAddr: 0x10000D6D4, symSize: 0x14 }
  - { offsetInCU: 0x21ECF, offset: 0x21ECF, size: 0x8, addend: 0x0, symName: __ZSt11__addressofIKcEPT_RS1_, symObjAddr: 0x75F4, symBinAddr: 0x10000D664, symSize: 0x14 }
  - { offsetInCU: 0x21ED7, offset: 0x21ED7, size: 0x8, addend: 0x0, symName: __ZNKSt4lessIPKcEclES1_S1_, symObjAddr: 0x7608, symBinAddr: 0x10000D678, symSize: 0x5C }
  - { offsetInCU: 0x21EE2, offset: 0x21EE2, size: 0x8, addend: 0x0, symName: __ZNSt15__new_allocatorIcE10deallocateEPcm, symObjAddr: 0x75CC, symBinAddr: 0x10000D63C, symSize: 0x28 }
  - { offsetInCU: 0x21EEA, offset: 0x21EEA, size: 0x8, addend: 0x0, symName: __ZSt11__addressofIKcEPT_RS1_, symObjAddr: 0x75F4, symBinAddr: 0x10000D664, symSize: 0x14 }
  - { offsetInCU: 0x21F67, offset: 0x21F67, size: 0x8, addend: 0x0, symName: __ZNSt8__format10_Arg_storeISt20basic_format_contextINS_10_Sink_iterIcEEcEJPKcjjEE11_S_make_eltIjEENS_10_Arg_valueIS4_EERT_, symObjAddr: 0x75A8, symBinAddr: 0x10000D618, symSize: 0x24 }
  - { offsetInCU: 0x21F6F, offset: 0x21F6F, size: 0x8, addend: 0x0, symName: __ZNSt15__new_allocatorIcE10deallocateEPcm, symObjAddr: 0x75CC, symBinAddr: 0x10000D63C, symSize: 0x28 }
  - { offsetInCU: 0x21FBC, offset: 0x21FBC, size: 0x8, addend: 0x0, symName: __ZNSt8__format10_Arg_storeISt20basic_format_contextINS_10_Sink_iterIcEEcEJPKcjjEE11_S_make_eltIS6_EENS_10_Arg_valueIS4_EERT_, symObjAddr: 0x7584, symBinAddr: 0x10000D5F4, symSize: 0x24 }
  - { offsetInCU: 0x21FC4, offset: 0x21FC4, size: 0x8, addend: 0x0, symName: __ZNSt8__format10_Arg_storeISt20basic_format_contextINS_10_Sink_iterIcEEcEJPKcjjEE11_S_make_eltIjEENS_10_Arg_valueIS4_EERT_, symObjAddr: 0x75A8, symBinAddr: 0x10000D618, symSize: 0x24 }
  - { offsetInCU: 0x22011, offset: 0x22011, size: 0x8, addend: 0x0, symName: __ZNSt8__format10_Arg_storeISt20basic_format_contextINS_10_Sink_iterIcEEcEJPKceeEE11_S_make_eltIeEENS_10_Arg_valueIS4_EERT_, symObjAddr: 0x7560, symBinAddr: 0x10000D5D0, symSize: 0x24 }
  - { offsetInCU: 0x22019, offset: 0x22019, size: 0x8, addend: 0x0, symName: __ZNSt8__format10_Arg_storeISt20basic_format_contextINS_10_Sink_iterIcEEcEJPKcjjEE11_S_make_eltIS6_EENS_10_Arg_valueIS4_EERT_, symObjAddr: 0x7584, symBinAddr: 0x10000D5F4, symSize: 0x24 }
  - { offsetInCU: 0x22066, offset: 0x22066, size: 0x8, addend: 0x0, symName: __ZNSt8__format10_Arg_storeISt20basic_format_contextINS_10_Sink_iterIcEEcEJPKceeEE11_S_make_eltIS6_EENS_10_Arg_valueIS4_EERT_, symObjAddr: 0x753C, symBinAddr: 0x10000D5AC, symSize: 0x24 }
  - { offsetInCU: 0x2206E, offset: 0x2206E, size: 0x8, addend: 0x0, symName: __ZNSt8__format10_Arg_storeISt20basic_format_contextINS_10_Sink_iterIcEEcEJPKceeEE11_S_make_eltIeEENS_10_Arg_valueIS4_EERT_, symObjAddr: 0x7560, symBinAddr: 0x10000D5D0, symSize: 0x24 }
  - { offsetInCU: 0x220BB, offset: 0x220BB, size: 0x8, addend: 0x0, symName: __ZNSt8__format10_Arg_storeISt20basic_format_contextINS_10_Sink_iterIcEEcEJPKcddEE11_S_make_eltIdEENS_10_Arg_valueIS4_EERT_, symObjAddr: 0x7518, symBinAddr: 0x10000D588, symSize: 0x24 }
  - { offsetInCU: 0x220C3, offset: 0x220C3, size: 0x8, addend: 0x0, symName: __ZNSt8__format10_Arg_storeISt20basic_format_contextINS_10_Sink_iterIcEEcEJPKceeEE11_S_make_eltIS6_EENS_10_Arg_valueIS4_EERT_, symObjAddr: 0x753C, symBinAddr: 0x10000D5AC, symSize: 0x24 }
  - { offsetInCU: 0x22110, offset: 0x22110, size: 0x8, addend: 0x0, symName: __ZNSt8__format10_Arg_storeISt20basic_format_contextINS_10_Sink_iterIcEEcEJPKcddEE11_S_make_eltIS6_EENS_10_Arg_valueIS4_EERT_, symObjAddr: 0x74F4, symBinAddr: 0x10000D564, symSize: 0x24 }
  - { offsetInCU: 0x22118, offset: 0x22118, size: 0x8, addend: 0x0, symName: __ZNSt8__format10_Arg_storeISt20basic_format_contextINS_10_Sink_iterIcEEcEJPKcddEE11_S_make_eltIdEENS_10_Arg_valueIS4_EERT_, symObjAddr: 0x7518, symBinAddr: 0x10000D588, symSize: 0x24 }
  - { offsetInCU: 0x22165, offset: 0x22165, size: 0x8, addend: 0x0, symName: __ZNSt8__format10_Arg_storeISt20basic_format_contextINS_10_Sink_iterIcEEcEJPKcffEE11_S_make_eltIfEENS_10_Arg_valueIS4_EERT_, symObjAddr: 0x74D0, symBinAddr: 0x10000D540, symSize: 0x24 }
  - { offsetInCU: 0x2216D, offset: 0x2216D, size: 0x8, addend: 0x0, symName: __ZNSt8__format10_Arg_storeISt20basic_format_contextINS_10_Sink_iterIcEEcEJPKcddEE11_S_make_eltIS6_EENS_10_Arg_valueIS4_EERT_, symObjAddr: 0x74F4, symBinAddr: 0x10000D564, symSize: 0x24 }
  - { offsetInCU: 0x221BA, offset: 0x221BA, size: 0x8, addend: 0x0, symName: __ZNSt8__format10_Arg_storeISt20basic_format_contextINS_10_Sink_iterIcEEcEJPKcffEE11_S_make_eltIS6_EENS_10_Arg_valueIS4_EERT_, symObjAddr: 0x74AC, symBinAddr: 0x10000D51C, symSize: 0x24 }
  - { offsetInCU: 0x221C2, offset: 0x221C2, size: 0x8, addend: 0x0, symName: __ZNSt8__format10_Arg_storeISt20basic_format_contextINS_10_Sink_iterIcEEcEJPKcffEE11_S_make_eltIfEENS_10_Arg_valueIS4_EERT_, symObjAddr: 0x74D0, symBinAddr: 0x10000D540, symSize: 0x24 }
  - { offsetInCU: 0x2220F, offset: 0x2220F, size: 0x8, addend: 0x0, symName: __ZNSt8__format10_Arg_storeISt20basic_format_contextINS_10_Sink_iterIcEEcEJPKcxxEE11_S_make_eltIlEENS_10_Arg_valueIS4_EERT_, symObjAddr: 0x7488, symBinAddr: 0x10000D4F8, symSize: 0x24 }
  - { offsetInCU: 0x22217, offset: 0x22217, size: 0x8, addend: 0x0, symName: __ZNSt8__format10_Arg_storeISt20basic_format_contextINS_10_Sink_iterIcEEcEJPKcffEE11_S_make_eltIS6_EENS_10_Arg_valueIS4_EERT_, symObjAddr: 0x74AC, symBinAddr: 0x10000D51C, symSize: 0x24 }
  - { offsetInCU: 0x22264, offset: 0x22264, size: 0x8, addend: 0x0, symName: __ZNSt8__format10_Arg_storeISt20basic_format_contextINS_10_Sink_iterIcEEcEJPKcxxEE11_S_make_eltIS6_EENS_10_Arg_valueIS4_EERT_, symObjAddr: 0x7464, symBinAddr: 0x10000D4D4, symSize: 0x24 }
  - { offsetInCU: 0x2226C, offset: 0x2226C, size: 0x8, addend: 0x0, symName: __ZNSt8__format10_Arg_storeISt20basic_format_contextINS_10_Sink_iterIcEEcEJPKcxxEE11_S_make_eltIlEENS_10_Arg_valueIS4_EERT_, symObjAddr: 0x7488, symBinAddr: 0x10000D4F8, symSize: 0x24 }
  - { offsetInCU: 0x222B9, offset: 0x222B9, size: 0x8, addend: 0x0, symName: __ZNSt8__format10_Arg_storeISt20basic_format_contextINS_10_Sink_iterIcEEcEJPKciiEE11_S_make_eltIiEENS_10_Arg_valueIS4_EERT_, symObjAddr: 0x7440, symBinAddr: 0x10000D4B0, symSize: 0x24 }
  - { offsetInCU: 0x222C1, offset: 0x222C1, size: 0x8, addend: 0x0, symName: __ZNSt8__format10_Arg_storeISt20basic_format_contextINS_10_Sink_iterIcEEcEJPKcxxEE11_S_make_eltIS6_EENS_10_Arg_valueIS4_EERT_, symObjAddr: 0x7464, symBinAddr: 0x10000D4D4, symSize: 0x24 }
  - { offsetInCU: 0x2230E, offset: 0x2230E, size: 0x8, addend: 0x0, symName: __ZNSt8__format10_Arg_storeISt20basic_format_contextINS_10_Sink_iterIcEEcEJPKciiEE11_S_make_eltIsEENS_10_Arg_valueIS4_EERT_, symObjAddr: 0x741C, symBinAddr: 0x10000D48C, symSize: 0x24 }
  - { offsetInCU: 0x22316, offset: 0x22316, size: 0x8, addend: 0x0, symName: __ZNSt8__format10_Arg_storeISt20basic_format_contextINS_10_Sink_iterIcEEcEJPKciiEE11_S_make_eltIiEENS_10_Arg_valueIS4_EERT_, symObjAddr: 0x7440, symBinAddr: 0x10000D4B0, symSize: 0x24 }
  - { offsetInCU: 0x22363, offset: 0x22363, size: 0x8, addend: 0x0, symName: __ZNSt8__format10_Arg_storeISt20basic_format_contextINS_10_Sink_iterIcEEcEJPKciiEE11_S_make_eltIS6_EENS_10_Arg_valueIS4_EERT_, symObjAddr: 0x73F8, symBinAddr: 0x10000D468, symSize: 0x24 }
  - { offsetInCU: 0x2236B, offset: 0x2236B, size: 0x8, addend: 0x0, symName: __ZNSt8__format10_Arg_storeISt20basic_format_contextINS_10_Sink_iterIcEEcEJPKciiEE11_S_make_eltIsEENS_10_Arg_valueIS4_EERT_, symObjAddr: 0x741C, symBinAddr: 0x10000D48C, symSize: 0x24 }
  - { offsetInCU: 0x223B8, offset: 0x223B8, size: 0x8, addend: 0x0, symName: __ZNSt16basic_format_argISt20basic_format_contextINSt8__format10_Sink_iterIcEEcEE6_M_setIcEEvT_, symObjAddr: 0x73AC, symBinAddr: 0x10000D41C, symSize: 0x4C }
  - { offsetInCU: 0x223C0, offset: 0x223C0, size: 0x8, addend: 0x0, symName: __ZNSt8__format10_Arg_storeISt20basic_format_contextINS_10_Sink_iterIcEEcEJPKciiEE11_S_make_eltIS6_EENS_10_Arg_valueIS4_EERT_, symObjAddr: 0x73F8, symBinAddr: 0x10000D468, symSize: 0x24 }
  - { offsetInCU: 0x22467, offset: 0x22467, size: 0x8, addend: 0x0, symName: __ZNSt16basic_format_argISt20basic_format_contextINSt8__format10_Sink_iterIcEEcEE6_M_setIPKcEEvT_, symObjAddr: 0x7360, symBinAddr: 0x10000D3D0, symSize: 0x4C }
  - { offsetInCU: 0x2246F, offset: 0x2246F, size: 0x8, addend: 0x0, symName: __ZNSt16basic_format_argISt20basic_format_contextINSt8__format10_Sink_iterIcEEcEE6_M_setIcEEvT_, symObjAddr: 0x73AC, symBinAddr: 0x10000D41C, symSize: 0x4C }
  - { offsetInCU: 0x22531, offset: 0x22531, size: 0x8, addend: 0x0, symName: __ZNK9__gnu_cxx17__normal_iteratorIPcSt4spanIcLm18446744073709551615EEE4baseEv, symObjAddr: 0x734C, symBinAddr: 0x10000D3BC, symSize: 0x14 }
  - { offsetInCU: 0x22539, offset: 0x22539, size: 0x8, addend: 0x0, symName: __ZNSt16basic_format_argISt20basic_format_contextINSt8__format10_Sink_iterIcEEcEE6_M_setIPKcEEvT_, symObjAddr: 0x7360, symBinAddr: 0x10000D3D0, symSize: 0x4C }
  - { offsetInCU: 0x225DD, offset: 0x225DD, size: 0x8, addend: 0x0, symName: __ZN9__gnu_cxx17__normal_iteratorIPcSt4spanIcLm18446744073709551615EEEC1ERKS1_, symObjAddr: 0x7324, symBinAddr: 0x10000D394, symSize: 0x28 }
  - { offsetInCU: 0x225E5, offset: 0x225E5, size: 0x8, addend: 0x0, symName: __ZNK9__gnu_cxx17__normal_iteratorIPcSt4spanIcLm18446744073709551615EEE4baseEv, symObjAddr: 0x734C, symBinAddr: 0x10000D3BC, symSize: 0x14 }
  - { offsetInCU: 0x225FB, offset: 0x225FB, size: 0x8, addend: 0x0, symName: __ZSt10to_addressIcEPT_S1_, symObjAddr: 0x7308, symBinAddr: 0x10000D378, symSize: 0x1C }
  - { offsetInCU: 0x22603, offset: 0x22603, size: 0x8, addend: 0x0, symName: __ZN9__gnu_cxx17__normal_iteratorIPcSt4spanIcLm18446744073709551615EEEC1ERKS1_, symObjAddr: 0x7324, symBinAddr: 0x10000D394, symSize: 0x28 }
  - { offsetInCU: 0x22618, offset: 0x22618, size: 0x8, addend: 0x0, symName: __ZNSt7__cxx1112basic_stringIcSt11char_traitsIcESaIcEE7_S_moveEPcPKcm, symObjAddr: 0x72BC, symBinAddr: 0x10000D32C, symSize: 0x4C }
  - { offsetInCU: 0x22620, offset: 0x22620, size: 0x8, addend: 0x0, symName: __ZSt10to_addressIcEPT_S1_, symObjAddr: 0x7308, symBinAddr: 0x10000D378, symSize: 0x1C }
  - { offsetInCU: 0x22673, offset: 0x22673, size: 0x8, addend: 0x0, symName: __ZNKSt7__cxx1112basic_stringIcSt11char_traitsIcESaIcEE11_M_disjunctEPKc, symObjAddr: 0x7230, symBinAddr: 0x10000D2A0, symSize: 0x8C }
  - { offsetInCU: 0x2267B, offset: 0x2267B, size: 0x8, addend: 0x0, symName: __ZNSt7__cxx1112basic_stringIcSt11char_traitsIcESaIcEE7_S_moveEPcPKcm, symObjAddr: 0x72BC, symBinAddr: 0x10000D32C, symSize: 0x4C }
  - { offsetInCU: 0x226BD, offset: 0x226BD, size: 0x8, addend: 0x0, symName: __ZNSt7__cxx1112basic_stringIcSt11char_traitsIcESaIcEE9_M_mutateEmmPKcm, symObjAddr: 0x70D8, symBinAddr: 0x10000D148, symSize: 0x158 }
  - { offsetInCU: 0x226C5, offset: 0x226C5, size: 0x8, addend: 0x0, symName: __ZNKSt7__cxx1112basic_stringIcSt11char_traitsIcESaIcEE11_M_disjunctEPKc, symObjAddr: 0x7230, symBinAddr: 0x10000D2A0, symSize: 0x8C }
  - { offsetInCU: 0x227B1, offset: 0x227B1, size: 0x8, addend: 0x0, symName: __ZSt9addressofIKcEPT_RS1_, symObjAddr: 0x70BC, symBinAddr: 0x10000D12C, symSize: 0x1C }
  - { offsetInCU: 0x227B9, offset: 0x227B9, size: 0x8, addend: 0x0, symName: __ZNSt7__cxx1112basic_stringIcSt11char_traitsIcESaIcEE9_M_mutateEmmPKcm, symObjAddr: 0x70D8, symBinAddr: 0x10000D148, symSize: 0x158 }
  - { offsetInCU: 0x22886, offset: 0x22886, size: 0x8, addend: 0x0, symName: __ZSt11__addressofIcEPT_RS0_, symObjAddr: 0x70A8, symBinAddr: 0x10000D118, symSize: 0x14 }
  - { offsetInCU: 0x2288E, offset: 0x2288E, size: 0x8, addend: 0x0, symName: __ZSt9addressofIKcEPT_RS1_, symObjAddr: 0x70BC, symBinAddr: 0x10000D12C, symSize: 0x1C }
  - { offsetInCU: 0x22974, offset: 0x22974, size: 0x8, addend: 0x0, symName: __ZNSt17basic_format_argsISt20basic_format_contextINSt8__format10_Sink_iterIcEEcEEC1IJPKcjjEEERKNS1_10_Arg_storeIS4_JDpT_EEE, symObjAddr: 0x7034, symBinAddr: 0x10000D0A4, symSize: 0x74 }
  - { offsetInCU: 0x2297C, offset: 0x2297C, size: 0x8, addend: 0x0, symName: __ZSt11__addressofIcEPT_RS0_, symObjAddr: 0x70A8, symBinAddr: 0x10000D118, symSize: 0x14 }
  - { offsetInCU: 0x22AB6, offset: 0x22AB6, size: 0x8, addend: 0x0, symName: __ZNSt17basic_format_argsISt20basic_format_contextINSt8__format10_Sink_iterIcEEcEEC1IJPKceeEEERKNS1_10_Arg_storeIS4_JDpT_EEE, symObjAddr: 0x6FC0, symBinAddr: 0x10000D030, symSize: 0x74 }
  - { offsetInCU: 0x22ABE, offset: 0x22ABE, size: 0x8, addend: 0x0, symName: __ZNSt17basic_format_argsISt20basic_format_contextINSt8__format10_Sink_iterIcEEcEEC1IJPKcjjEEERKNS1_10_Arg_storeIS4_JDpT_EEE, symObjAddr: 0x7034, symBinAddr: 0x10000D0A4, symSize: 0x74 }
  - { offsetInCU: 0x22BF8, offset: 0x22BF8, size: 0x8, addend: 0x0, symName: __ZNSt17basic_format_argsISt20basic_format_contextINSt8__format10_Sink_iterIcEEcEEC1IJPKcddEEERKNS1_10_Arg_storeIS4_JDpT_EEE, symObjAddr: 0x6F4C, symBinAddr: 0x10000CFBC, symSize: 0x74 }
  - { offsetInCU: 0x22C00, offset: 0x22C00, size: 0x8, addend: 0x0, symName: __ZNSt17basic_format_argsISt20basic_format_contextINSt8__format10_Sink_iterIcEEcEEC1IJPKceeEEERKNS1_10_Arg_storeIS4_JDpT_EEE, symObjAddr: 0x6FC0, symBinAddr: 0x10000D030, symSize: 0x74 }
  - { offsetInCU: 0x22D3A, offset: 0x22D3A, size: 0x8, addend: 0x0, symName: __ZNSt17basic_format_argsISt20basic_format_contextINSt8__format10_Sink_iterIcEEcEEC1IJPKcffEEERKNS1_10_Arg_storeIS4_JDpT_EEE, symObjAddr: 0x6ED8, symBinAddr: 0x10000CF48, symSize: 0x74 }
  - { offsetInCU: 0x22D42, offset: 0x22D42, size: 0x8, addend: 0x0, symName: __ZNSt17basic_format_argsISt20basic_format_contextINSt8__format10_Sink_iterIcEEcEEC1IJPKcddEEERKNS1_10_Arg_storeIS4_JDpT_EEE, symObjAddr: 0x6F4C, symBinAddr: 0x10000CFBC, symSize: 0x74 }
  - { offsetInCU: 0x22E7C, offset: 0x22E7C, size: 0x8, addend: 0x0, symName: __ZNSt17basic_format_argsISt20basic_format_contextINSt8__format10_Sink_iterIcEEcEEC1IJPKcxxEEERKNS1_10_Arg_storeIS4_JDpT_EEE, symObjAddr: 0x6E64, symBinAddr: 0x10000CED4, symSize: 0x74 }
  - { offsetInCU: 0x22E84, offset: 0x22E84, size: 0x8, addend: 0x0, symName: __ZNSt17basic_format_argsISt20basic_format_contextINSt8__format10_Sink_iterIcEEcEEC1IJPKcffEEERKNS1_10_Arg_storeIS4_JDpT_EEE, symObjAddr: 0x6ED8, symBinAddr: 0x10000CF48, symSize: 0x74 }
  - { offsetInCU: 0x2304A, offset: 0x2304A, size: 0x8, addend: 0x0, symName: __ZNSt17basic_format_argsISt20basic_format_contextINSt8__format10_Sink_iterIcEEcEEC1IJPKciiEEERKNS1_10_Arg_storeIS4_JDpT_EEE, symObjAddr: 0x6DF0, symBinAddr: 0x10000CE60, symSize: 0x74 }
  - { offsetInCU: 0x23052, offset: 0x23052, size: 0x8, addend: 0x0, symName: __ZNSt17basic_format_argsISt20basic_format_contextINSt8__format10_Sink_iterIcEEcEEC1IJPKcxxEEERKNS1_10_Arg_storeIS4_JDpT_EEE, symObjAddr: 0x6E64, symBinAddr: 0x10000CED4, symSize: 0x74 }
  - { offsetInCU: 0x2313B, offset: 0x2313B, size: 0x8, addend: 0x0, symName: __ZNSt16basic_format_argISt20basic_format_contextINSt8__format10_Sink_iterIcEEcEEC1IcEERT_, symObjAddr: 0x6DB4, symBinAddr: 0x10000CE24, symSize: 0x3C }
  - { offsetInCU: 0x23143, offset: 0x23143, size: 0x8, addend: 0x0, symName: __ZNSt17basic_format_argsISt20basic_format_contextINSt8__format10_Sink_iterIcEEcEEC1IJPKciiEEERKNS1_10_Arg_storeIS4_JDpT_EEE, symObjAddr: 0x6DF0, symBinAddr: 0x10000CE60, symSize: 0x74 }
  - { offsetInCU: 0x2320F, offset: 0x2320F, size: 0x8, addend: 0x0, symName: __ZNSt16basic_format_argISt20basic_format_contextINSt8__format10_Sink_iterIcEEcEEC1IPKcEERT_, symObjAddr: 0x6D78, symBinAddr: 0x10000CDE8, symSize: 0x3C }
  - { offsetInCU: 0x23217, offset: 0x23217, size: 0x8, addend: 0x0, symName: __ZNSt16basic_format_argISt20basic_format_contextINSt8__format10_Sink_iterIcEEcEEC1IcEERT_, symObjAddr: 0x6DB4, symBinAddr: 0x10000CE24, symSize: 0x3C }
  - { offsetInCU: 0x23249, offset: 0x23249, size: 0x8, addend: 0x0, symName: __ZNKSt4spanIcLm18446744073709551615EE5firstEm, symObjAddr: 0x6D04, symBinAddr: 0x10000CD74, symSize: 0x74 }
  - { offsetInCU: 0x23251, offset: 0x23251, size: 0x8, addend: 0x0, symName: __ZNSt16basic_format_argISt20basic_format_contextINSt8__format10_Sink_iterIcEEcEEC1IPKcEERT_, symObjAddr: 0x6D78, symBinAddr: 0x10000CDE8, symSize: 0x3C }
  - { offsetInCU: 0x23339, offset: 0x23339, size: 0x8, addend: 0x0, symName: __ZN9__gnu_cxxmiIPcSt4spanIcLm18446744073709551615EEEENS_17__normal_iteratorIT_T0_E15difference_typeERKS7_SA_, symObjAddr: 0x6CC8, symBinAddr: 0x10000CD38, symSize: 0x3C }
  - { offsetInCU: 0x23341, offset: 0x23341, size: 0x8, addend: 0x0, symName: __ZNKSt4spanIcLm18446744073709551615EE5firstEm, symObjAddr: 0x6D04, symBinAddr: 0x10000CD74, symSize: 0x74 }
  - { offsetInCU: 0x23359, offset: 0x23359, size: 0x8, addend: 0x0, symName: __ZSt11__addressofINSt8__format5_SinkIcEEEPT_RS3_, symObjAddr: 0x6CB4, symBinAddr: 0x10000CD24, symSize: 0x14 }
  - { offsetInCU: 0x23361, offset: 0x23361, size: 0x8, addend: 0x0, symName: __ZN9__gnu_cxxmiIPcSt4spanIcLm18446744073709551615EEEENS_17__normal_iteratorIT_T0_E15difference_typeERKS7_SA_, symObjAddr: 0x6CC8, symBinAddr: 0x10000CD38, symSize: 0x3C }
  - { offsetInCU: 0x23347, offset: 0x23347, size: 0x8, addend: 0x0, symName: __ZNKSt4spanIcLm18446744073709551615EE5beginEv, symObjAddr: 0x6C90, symBinAddr: 0x10000CD00, symSize: 0x24 }
  - { offsetInCU: 0x2334F, offset: 0x2334F, size: 0x8, addend: 0x0, symName: __ZSt11__addressofINSt8__format5_SinkIcEEEPT_RS3_, symObjAddr: 0x6CB4, symBinAddr: 0x10000CD24, symSize: 0x14 }
  - { offsetInCU: 0x233F1, offset: 0x233F1, size: 0x8, addend: 0x0, symName: __ZNSt4spanIcLm18446744073709551615EEC1IPcEET_m, symObjAddr: 0x6C4C, symBinAddr: 0x10000CCBC, symSize: 0x44 }
  - { offsetInCU: 0x233F9, offset: 0x233F9, size: 0x8, addend: 0x0, symName: __ZNKSt4spanIcLm18446744073709551615EE5beginEv, symObjAddr: 0x6C90, symBinAddr: 0x10000CD00, symSize: 0x24 }
  - { offsetInCU: 0x23419, offset: 0x23419, size: 0x8, addend: 0x0, symName: __ZNKSt7__cxx1112basic_stringIcSt11char_traitsIcESaIcEE8_M_checkEmPKc, symObjAddr: 0x6BD4, symBinAddr: 0x10000CC44, symSize: 0x78 }
  - { offsetInCU: 0x23421, offset: 0x23421, size: 0x8, addend: 0x0, symName: __ZNSt4spanIcLm18446744073709551615EEC1IPcEET_m, symObjAddr: 0x6C4C, symBinAddr: 0x10000CCBC, symSize: 0x44 }
  - { offsetInCU: 0x23477, offset: 0x23477, size: 0x8, addend: 0x0, symName: __ZNSt7__cxx1112basic_stringIcSt11char_traitsIcESaIcEE10_M_replaceEmmPKcm, symObjAddr: 0x6958, symBinAddr: 0x10000C9C8, symSize: 0x27C }
  - { offsetInCU: 0x2347F, offset: 0x2347F, size: 0x8, addend: 0x0, symName: __ZNKSt7__cxx1112basic_stringIcSt11char_traitsIcESaIcEE8_M_checkEmPKc, symObjAddr: 0x6BD4, symBinAddr: 0x10000CC44, symSize: 0x78 }
  - { offsetInCU: 0x235D2, offset: 0x235D2, size: 0x8, addend: 0x0, symName: __ZNSt7__cxx1112basic_stringIcSt11char_traitsIcESaIcEE9_M_appendEPKcm, symObjAddr: 0x6890, symBinAddr: 0x10000C900, symSize: 0xC8 }
  - { offsetInCU: 0x235DA, offset: 0x235DA, size: 0x8, addend: 0x0, symName: __ZNSt7__cxx1112basic_stringIcSt11char_traitsIcESaIcEE10_M_replaceEmmPKcm, symObjAddr: 0x6958, symBinAddr: 0x10000C9C8, symSize: 0x27C }
  - { offsetInCU: 0x2363F, offset: 0x2363F, size: 0x8, addend: 0x0, symName: __ZNKSt7__cxx1112basic_stringIcSt11char_traitsIcESaIcEE15_M_check_lengthEmmPKc, symObjAddr: 0x681C, symBinAddr: 0x10000C88C, symSize: 0x74 }
  - { offsetInCU: 0x23647, offset: 0x23647, size: 0x8, addend: 0x0, symName: __ZNSt7__cxx1112basic_stringIcSt11char_traitsIcESaIcEE9_M_appendEPKcm, symObjAddr: 0x6890, symBinAddr: 0x10000C900, symSize: 0xC8 }
  - { offsetInCU: 0x236AC, offset: 0x236AC, size: 0x8, addend: 0x0, symName: __ZNSt7__cxx1112basic_stringIcSt11char_traitsIcESaIcEE7_S_copyEPcPKcm, symObjAddr: 0x67D0, symBinAddr: 0x10000C840, symSize: 0x4C }
  - { offsetInCU: 0x236B4, offset: 0x236B4, size: 0x8, addend: 0x0, symName: __ZNKSt7__cxx1112basic_stringIcSt11char_traitsIcESaIcEE15_M_check_lengthEmmPKc, symObjAddr: 0x681C, symBinAddr: 0x10000C88C, symSize: 0x74 }
  - { offsetInCU: 0x23707, offset: 0x23707, size: 0x8, addend: 0x0, symName: __ZNSt19__ptr_traits_ptr_toIPKcS0_Lb0EE10pointer_toERS0_, symObjAddr: 0x67B4, symBinAddr: 0x10000C824, symSize: 0x1C }
  - { offsetInCU: 0x2370F, offset: 0x2370F, size: 0x8, addend: 0x0, symName: __ZNSt7__cxx1112basic_stringIcSt11char_traitsIcESaIcEE7_S_copyEPcPKcm, symObjAddr: 0x67D0, symBinAddr: 0x10000C840, symSize: 0x4C }
  - { offsetInCU: 0x2377C, offset: 0x2377C, size: 0x8, addend: 0x0, symName: __ZNSt7__cxx1112basic_stringIcSt11char_traitsIcESaIcEE11_S_allocateERS3_m, symObjAddr: 0x6714, symBinAddr: 0x10000C784, symSize: 0xA0 }
  - { offsetInCU: 0x23784, offset: 0x23784, size: 0x8, addend: 0x0, symName: __ZNSt19__ptr_traits_ptr_toIPKcS0_Lb0EE10pointer_toERS0_, symObjAddr: 0x67B4, symBinAddr: 0x10000C824, symSize: 0x1C }
  - { offsetInCU: 0x23840, offset: 0x23840, size: 0x8, addend: 0x0, symName: __ZNKSt7__cxx1112basic_stringIcSt11char_traitsIcESaIcEE8max_sizeEv, symObjAddr: 0x66E8, symBinAddr: 0x10000C758, symSize: 0x2C }
  - { offsetInCU: 0x23848, offset: 0x23848, size: 0x8, addend: 0x0, symName: __ZNSt7__cxx1112basic_stringIcSt11char_traitsIcESaIcEE11_S_allocateERS3_m, symObjAddr: 0x6714, symBinAddr: 0x10000C784, symSize: 0xA0 }
  - { offsetInCU: 0x238EA, offset: 0x238EA, size: 0x8, addend: 0x0, symName: __ZSt9addressofIcEPT_RS0_, symObjAddr: 0x66CC, symBinAddr: 0x10000C73C, symSize: 0x1C }
  - { offsetInCU: 0x238F2, offset: 0x238F2, size: 0x8, addend: 0x0, symName: __ZNKSt7__cxx1112basic_stringIcSt11char_traitsIcESaIcEE8max_sizeEv, symObjAddr: 0x66E8, symBinAddr: 0x10000C758, symSize: 0x2C }
  - { offsetInCU: 0x23948, offset: 0x23948, size: 0x8, addend: 0x0, symName: __ZSt13__countl_zeroImEiT_, symObjAddr: 0x6678, symBinAddr: 0x10000C6E8, symSize: 0x54 }
  - { offsetInCU: 0x23950, offset: 0x23950, size: 0x8, addend: 0x0, symName: __ZSt9addressofIcEPT_RS0_, symObjAddr: 0x66CC, symBinAddr: 0x10000C73C, symSize: 0x1C }
  - { offsetInCU: 0x23A01, offset: 0x23A01, size: 0x8, addend: 0x0, symName: __ZSt13__countl_zeroIjEiT_, symObjAddr: 0x6624, symBinAddr: 0x10000C694, symSize: 0x54 }
  - { offsetInCU: 0x23A09, offset: 0x23A09, size: 0x8, addend: 0x0, symName: __ZSt13__countl_zeroImEiT_, symObjAddr: 0x6678, symBinAddr: 0x10000C6E8, symSize: 0x54 }
  - { offsetInCU: 0x23B43, offset: 0x23B43, size: 0x8, addend: 0x0, symName: __ZSt6formatIJPKcjjEENSt7__cxx1112basic_stringIcSt11char_traitsIcESaIcEEESt19basic_format_stringIcJDpNSt13type_identityIT_E4typeEEEDpOSA_, symObjAddr: 0x6564, symBinAddr: 0x10000C5D4, symSize: 0xC0 }
  - { offsetInCU: 0x23B4B, offset: 0x23B4B, size: 0x8, addend: 0x0, symName: __ZSt13__countl_zeroIjEiT_, symObjAddr: 0x6624, symBinAddr: 0x10000C694, symSize: 0x54 }
  - { offsetInCU: 0x23D02, offset: 0x23D02, size: 0x8, addend: 0x0, symName: __ZSt6formatIJPKceeEENSt7__cxx1112basic_stringIcSt11char_traitsIcESaIcEEESt19basic_format_stringIcJDpNSt13type_identityIT_E4typeEEEDpOSA_, symObjAddr: 0x64A4, symBinAddr: 0x10000C514, symSize: 0xC0 }
  - { offsetInCU: 0x23D0A, offset: 0x23D0A, size: 0x8, addend: 0x0, symName: __ZSt6formatIJPKcjjEENSt7__cxx1112basic_stringIcSt11char_traitsIcESaIcEEESt19basic_format_stringIcJDpNSt13type_identityIT_E4typeEEEDpOSA_, symObjAddr: 0x6564, symBinAddr: 0x10000C5D4, symSize: 0xC0 }
  - { offsetInCU: 0x23EC3, offset: 0x23EC3, size: 0x8, addend: 0x0, symName: __ZSt6formatIJPKcddEENSt7__cxx1112basic_stringIcSt11char_traitsIcESaIcEEESt19basic_format_stringIcJDpNSt13type_identityIT_E4typeEEEDpOSA_, symObjAddr: 0x63E4, symBinAddr: 0x10000C454, symSize: 0xC0 }
  - { offsetInCU: 0x23ECB, offset: 0x23ECB, size: 0x8, addend: 0x0, symName: __ZSt6formatIJPKceeEENSt7__cxx1112basic_stringIcSt11char_traitsIcESaIcEEESt19basic_format_stringIcJDpNSt13type_identityIT_E4typeEEEDpOSA_, symObjAddr: 0x64A4, symBinAddr: 0x10000C514, symSize: 0xC0 }
  - { offsetInCU: 0x2408C, offset: 0x2408C, size: 0x8, addend: 0x0, symName: __ZSt6formatIJPKcffEENSt7__cxx1112basic_stringIcSt11char_traitsIcESaIcEEESt19basic_format_stringIcJDpNSt13type_identityIT_E4typeEEEDpOSA_, symObjAddr: 0x6324, symBinAddr: 0x10000C394, symSize: 0xC0 }
  - { offsetInCU: 0x24094, offset: 0x24094, size: 0x8, addend: 0x0, symName: __ZSt6formatIJPKcddEENSt7__cxx1112basic_stringIcSt11char_traitsIcESaIcEEESt19basic_format_stringIcJDpNSt13type_identityIT_E4typeEEEDpOSA_, symObjAddr: 0x63E4, symBinAddr: 0x10000C454, symSize: 0xC0 }
  - { offsetInCU: 0x2425D, offset: 0x2425D, size: 0x8, addend: 0x0, symName: __ZSt6formatIJPKcllEENSt7__cxx1112basic_stringIcSt11char_traitsIcESaIcEEESt19basic_format_stringIcJDpNSt13type_identityIT_E4typeEEEDpOSA_, symObjAddr: 0x6264, symBinAddr: 0x10000C2D4, symSize: 0xC0 }
  - { offsetInCU: 0x24265, offset: 0x24265, size: 0x8, addend: 0x0, symName: __ZSt6formatIJPKcffEENSt7__cxx1112basic_stringIcSt11char_traitsIcESaIcEEESt19basic_format_stringIcJDpNSt13type_identityIT_E4typeEEEDpOSA_, symObjAddr: 0x6324, symBinAddr: 0x10000C394, symSize: 0xC0 }
  - { offsetInCU: 0x24414, offset: 0x24414, size: 0x8, addend: 0x0, symName: __ZSt6formatIJPKciiEENSt7__cxx1112basic_stringIcSt11char_traitsIcESaIcEEESt19basic_format_stringIcJDpNSt13type_identityIT_E4typeEEEDpOSA_, symObjAddr: 0x61A4, symBinAddr: 0x10000C214, symSize: 0xC0 }
  - { offsetInCU: 0x2441C, offset: 0x2441C, size: 0x8, addend: 0x0, symName: __ZSt6formatIJPKcllEENSt7__cxx1112basic_stringIcSt11char_traitsIcESaIcEEESt19basic_format_stringIcJDpNSt13type_identityIT_E4typeEEEDpOSA_, symObjAddr: 0x6264, symBinAddr: 0x10000C2D4, symSize: 0xC0 }
  - { offsetInCU: 0x245E1, offset: 0x245E1, size: 0x8, addend: 0x0, symName: __ZSt6formatIJPKcssEENSt7__cxx1112basic_stringIcSt11char_traitsIcESaIcEEESt19basic_format_stringIcJDpNSt13type_identityIT_E4typeEEEDpOSA_, symObjAddr: 0x60E4, symBinAddr: 0x10000C154, symSize: 0xC0 }
  - { offsetInCU: 0x245E9, offset: 0x245E9, size: 0x8, addend: 0x0, symName: __ZSt6formatIJPKciiEENSt7__cxx1112basic_stringIcSt11char_traitsIcESaIcEEESt19basic_format_stringIcJDpNSt13type_identityIT_E4typeEEEDpOSA_, symObjAddr: 0x61A4, symBinAddr: 0x10000C214, symSize: 0xC0 }
  - { offsetInCU: 0x246F4, offset: 0x246F4, size: 0x8, addend: 0x0, symName: __ZNSt8__format10_Arg_storeISt20basic_format_contextINS_10_Sink_iterIcEEcEJPKcccEE11_S_make_eltIcEENS_10_Arg_valueIS4_EERT_, symObjAddr: 0x60C0, symBinAddr: 0x10000C130, symSize: 0x24 }
  - { offsetInCU: 0x246FC, offset: 0x246FC, size: 0x8, addend: 0x0, symName: __ZSt6formatIJPKcssEENSt7__cxx1112basic_stringIcSt11char_traitsIcESaIcEEESt19basic_format_stringIcJDpNSt13type_identityIT_E4typeEEEDpOSA_, symObjAddr: 0x60E4, symBinAddr: 0x10000C154, symSize: 0xC0 }
  - { offsetInCU: 0x24749, offset: 0x24749, size: 0x8, addend: 0x0, symName: __ZNSt8__format10_Arg_storeISt20basic_format_contextINS_10_Sink_iterIcEEcEJPKcccEE11_S_make_eltIS6_EENS_10_Arg_valueIS4_EERT_, symObjAddr: 0x609C, symBinAddr: 0x10000C10C, symSize: 0x24 }
  - { offsetInCU: 0x24751, offset: 0x24751, size: 0x8, addend: 0x0, symName: __ZNSt8__format10_Arg_storeISt20basic_format_contextINS_10_Sink_iterIcEEcEJPKcccEE11_S_make_eltIcEENS_10_Arg_valueIS4_EERT_, symObjAddr: 0x60C0, symBinAddr: 0x10000C130, symSize: 0x24 }
  - { offsetInCU: 0x247EF, offset: 0x247EF, size: 0x8, addend: 0x0, symName: __ZSt7forwardIRPKcEOT_RNSt16remove_referenceIS3_E4typeE, symObjAddr: 0x6088, symBinAddr: 0x10000C0F8, symSize: 0x14 }
  - { offsetInCU: 0x247F7, offset: 0x247F7, size: 0x8, addend: 0x0, symName: __ZNSt8__format10_Arg_storeISt20basic_format_contextINS_10_Sink_iterIcEEcEJPKcccEE11_S_make_eltIS6_EENS_10_Arg_valueIS4_EERT_, symObjAddr: 0x609C, symBinAddr: 0x10000C10C, symSize: 0x24 }
  - { offsetInCU: 0x2484A, offset: 0x2484A, size: 0x8, addend: 0x0, symName: __ZSt7forwardIRtEOT_RNSt16remove_referenceIS1_E4typeE, symObjAddr: 0x6074, symBinAddr: 0x10000C0E4, symSize: 0x14 }
  - { offsetInCU: 0x24852, offset: 0x24852, size: 0x8, addend: 0x0, symName: __ZSt7forwardIRPKcEOT_RNSt16remove_referenceIS3_E4typeE, symObjAddr: 0x6088, symBinAddr: 0x10000C0F8, symSize: 0x14 }
  - { offsetInCU: 0x2489D, offset: 0x2489D, size: 0x8, addend: 0x0, symName: __ZNSt8__detail15__raise_and_addItEEbRT_ih, symObjAddr: 0x5F9C, symBinAddr: 0x10000C00C, symSize: 0xD8 }
  - { offsetInCU: 0x248A5, offset: 0x248A5, size: 0x8, addend: 0x0, symName: __ZSt7forwardIRtEOT_RNSt16remove_referenceIS1_E4typeE, symObjAddr: 0x6074, symBinAddr: 0x10000C0E4, symSize: 0x14 }
  - { offsetInCU: 0x2490F, offset: 0x2490F, size: 0x8, addend: 0x0, symName: __ZSt7forwardIDnEOT_RNSt16remove_referenceIS0_E4typeE, symObjAddr: 0x5F88, symBinAddr: 0x10000BFF8, symSize: 0x14 }
  - { offsetInCU: 0x24917, offset: 0x24917, size: 0x8, addend: 0x0, symName: __ZNSt8__detail15__raise_and_addItEEbRT_ih, symObjAddr: 0x5F9C, symBinAddr: 0x10000C00C, symSize: 0xD8 }
  - { offsetInCU: 0x24963, offset: 0x24963, size: 0x8, addend: 0x0, symName: __ZSt7forwardIiEOT_RNSt16remove_referenceIS0_E4typeE, symObjAddr: 0x5F74, symBinAddr: 0x10000BFE4, symSize: 0x14 }
  - { offsetInCU: 0x2496B, offset: 0x2496B, size: 0x8, addend: 0x0, symName: __ZSt7forwardIDnEOT_RNSt16remove_referenceIS0_E4typeE, symObjAddr: 0x5F88, symBinAddr: 0x10000BFF8, symSize: 0x14 }
  - { offsetInCU: 0x2498F, offset: 0x2498F, size: 0x8, addend: 0x0, symName: __ZNKSt4spanIcLm18446744073709551615EE4sizeEv, symObjAddr: 0x5F54, symBinAddr: 0x10000BFC4, symSize: 0x20 }
  - { offsetInCU: 0x24997, offset: 0x24997, size: 0x8, addend: 0x0, symName: __ZSt7forwardIiEOT_RNSt16remove_referenceIS0_E4typeE, symObjAddr: 0x5F74, symBinAddr: 0x10000BFE4, symSize: 0x14 }
  - { offsetInCU: 0x249DB, offset: 0x249DB, size: 0x8, addend: 0x0, symName: __ZNSt20basic_format_contextINSt8__format10_Sink_iterIcEEcE3outEv, symObjAddr: 0x5F30, symBinAddr: 0x10000BFA0, symSize: 0x24 }
  - { offsetInCU: 0x249E3, offset: 0x249E3, size: 0x8, addend: 0x0, symName: __ZNKSt4spanIcLm18446744073709551615EE4sizeEv, symObjAddr: 0x5F54, symBinAddr: 0x10000BFC4, symSize: 0x20 }
  - { offsetInCU: 0x24AD1, offset: 0x24AD1, size: 0x8, addend: 0x0, symName: __ZNSt8__format19_Formatting_scannerINS_10_Sink_iterIcEEcEC1ERSt20basic_format_contextIS2_cESt17basic_string_viewIcSt11char_traitsIcEE, symObjAddr: 0x5EE0, symBinAddr: 0x10000BF50, symSize: 0x50 }
  - { offsetInCU: 0x24AD9, offset: 0x24AD9, size: 0x8, addend: 0x0, symName: __ZNSt20basic_format_contextINSt8__format10_Sink_iterIcEEcE3outEv, symObjAddr: 0x5F30, symBinAddr: 0x10000BFA0, symSize: 0x24 }
  - { offsetInCU: 0x24B4C, offset: 0x24B4C, size: 0x8, addend: 0x0, symName: __ZNSt20basic_format_contextINSt8__format10_Sink_iterIcEEcEC1ESt17basic_format_argsIS3_ES2_RKSt6locale, symObjAddr: 0x5E88, symBinAddr: 0x10000BEF8, symSize: 0x58 }
  - { offsetInCU: 0x24B54, offset: 0x24B54, size: 0x8, addend: 0x0, symName: __ZNSt8__format19_Formatting_scannerINS_10_Sink_iterIcEEcEC1ERSt20basic_format_contextIS2_cESt17basic_string_viewIcSt11char_traitsIcEE, symObjAddr: 0x5EE0, symBinAddr: 0x10000BF50, symSize: 0x50 }
  - { offsetInCU: 0x24BD7, offset: 0x24BD7, size: 0x8, addend: 0x0, symName: __ZNSt20basic_format_contextINSt8__format10_Sink_iterIcEEcEC1ESt17basic_format_argsIS3_ES2_, symObjAddr: 0x5E24, symBinAddr: 0x10000BE94, symSize: 0x64 }
  - { offsetInCU: 0x24BDF, offset: 0x24BDF, size: 0x8, addend: 0x0, symName: __ZNSt20basic_format_contextINSt8__format10_Sink_iterIcEEcEC1ESt17basic_format_argsIS3_ES2_RKSt6locale, symObjAddr: 0x5E88, symBinAddr: 0x10000BEF8, symSize: 0x58 }
  - { offsetInCU: 0x24C86, offset: 0x24C86, size: 0x8, addend: 0x0, symName: __ZSt9addressofINSt8__format5_SinkIcEEEPT_RS3_, symObjAddr: 0x5E08, symBinAddr: 0x10000BE78, symSize: 0x1C }
  - { offsetInCU: 0x24C8E, offset: 0x24C8E, size: 0x8, addend: 0x0, symName: __ZNSt20basic_format_contextINSt8__format10_Sink_iterIcEEcEC1ESt17basic_format_argsIS3_ES2_, symObjAddr: 0x5E24, symBinAddr: 0x10000BE94, symSize: 0x64 }
  - { offsetInCU: 0x24D46, offset: 0x24D46, size: 0x8, addend: 0x0, symName: __ZNSt4spanIcLm18446744073709551615EEC1ILm256EEERAT__c, symObjAddr: 0x5DDC, symBinAddr: 0x10000BE4C, symSize: 0x2C }
  - { offsetInCU: 0x24D4E, offset: 0x24D4E, size: 0x8, addend: 0x0, symName: __ZSt9addressofINSt8__format5_SinkIcEEEPT_RS3_, symObjAddr: 0x5E08, symBinAddr: 0x10000BE78, symSize: 0x1C }
  - { offsetInCU: 0x24D5C, offset: 0x24D5C, size: 0x8, addend: 0x0, symName: __ZNSt7__cxx1112basic_stringIcSt11char_traitsIcESaIcEE6appendEPKcm, symObjAddr: 0x5D98, symBinAddr: 0x10000BE08, symSize: 0x44 }
  - { offsetInCU: 0x24D64, offset: 0x24D64, size: 0x8, addend: 0x0, symName: __ZNSt4spanIcLm18446744073709551615EEC1ILm256EEERAT__c, symObjAddr: 0x5DDC, symBinAddr: 0x10000BE4C, symSize: 0x2C }
  - { offsetInCU: 0x24DBA, offset: 0x24DBA, size: 0x8, addend: 0x0, symName: __ZNSt7__cxx1112basic_stringIcSt11char_traitsIcESaIcEE7reserveEm, symObjAddr: 0x5CF0, symBinAddr: 0x10000BD60, symSize: 0xA8 }
  - { offsetInCU: 0x24DC2, offset: 0x24DC2, size: 0x8, addend: 0x0, symName: __ZNSt7__cxx1112basic_stringIcSt11char_traitsIcESaIcEE6appendEPKcm, symObjAddr: 0x5D98, symBinAddr: 0x10000BE08, symSize: 0x44 }
  - { offsetInCU: 0x24E28, offset: 0x24E28, size: 0x8, addend: 0x0, symName: __ZNKSt7__cxx1112basic_stringIcSt11char_traitsIcESaIcEE16_M_get_allocatorEv, symObjAddr: 0x5CDC, symBinAddr: 0x10000BD4C, symSize: 0x14 }
  - { offsetInCU: 0x24E30, offset: 0x24E30, size: 0x8, addend: 0x0, symName: __ZNSt7__cxx1112basic_stringIcSt11char_traitsIcESaIcEE7reserveEm, symObjAddr: 0x5CF0, symBinAddr: 0x10000BD60, symSize: 0xA8 }
  - { offsetInCU: 0x24E59, offset: 0x24E59, size: 0x8, addend: 0x0, symName: __ZNKSt7__cxx1112basic_stringIcSt11char_traitsIcESaIcEE13_M_local_dataEv, symObjAddr: 0x5CBC, symBinAddr: 0x10000BD2C, symSize: 0x20 }
  - { offsetInCU: 0x24E61, offset: 0x24E61, size: 0x8, addend: 0x0, symName: __ZNKSt7__cxx1112basic_stringIcSt11char_traitsIcESaIcEE16_M_get_allocatorEv, symObjAddr: 0x5CDC, symBinAddr: 0x10000BD4C, symSize: 0x14 }
  - { offsetInCU: 0x24E8A, offset: 0x24E8A, size: 0x8, addend: 0x0, symName: __ZNSt7__cxx1112basic_stringIcSt11char_traitsIcESaIcEE10_M_destroyEm, symObjAddr: 0x5C20, symBinAddr: 0x10000BC90, symSize: 0x9C }
  - { offsetInCU: 0x24E92, offset: 0x24E92, size: 0x8, addend: 0x0, symName: __ZNKSt7__cxx1112basic_stringIcSt11char_traitsIcESaIcEE13_M_local_dataEv, symObjAddr: 0x5CBC, symBinAddr: 0x10000BD2C, symSize: 0x20 }
  - { offsetInCU: 0x24F53, offset: 0x24F53, size: 0x8, addend: 0x0, symName: __ZNSt7__cxx1112basic_stringIcSt11char_traitsIcESaIcEE9_S_assignEPcmc, symObjAddr: 0x5BCC, symBinAddr: 0x10000BC3C, symSize: 0x54 }
  - { offsetInCU: 0x24F5B, offset: 0x24F5B, size: 0x8, addend: 0x0, symName: __ZNSt7__cxx1112basic_stringIcSt11char_traitsIcESaIcEE10_M_destroyEm, symObjAddr: 0x5C20, symBinAddr: 0x10000BC90, symSize: 0x9C }
  - { offsetInCU: 0x24FE2, offset: 0x24FE2, size: 0x8, addend: 0x0, symName: __ZNSt7__cxx1112basic_stringIcSt11char_traitsIcESaIcEE9_M_createERmm, symObjAddr: 0x5AD8, symBinAddr: 0x10000BB48, symSize: 0xF4 }
  - { offsetInCU: 0x24FEA, offset: 0x24FEA, size: 0x8, addend: 0x0, symName: __ZNSt7__cxx1112basic_stringIcSt11char_traitsIcESaIcEE9_S_assignEPcmc, symObjAddr: 0x5BCC, symBinAddr: 0x10000BC3C, symSize: 0x54 }
  - { offsetInCU: 0x25066, offset: 0x25066, size: 0x8, addend: 0x0, symName: __ZNSt19__ptr_traits_ptr_toIPccLb0EE10pointer_toERc, symObjAddr: 0x5ABC, symBinAddr: 0x10000BB2C, symSize: 0x1C }
  - { offsetInCU: 0x2506E, offset: 0x2506E, size: 0x8, addend: 0x0, symName: __ZNSt7__cxx1112basic_stringIcSt11char_traitsIcESaIcEE9_M_createERmm, symObjAddr: 0x5AD8, symBinAddr: 0x10000BB48, symSize: 0xF4 }
  - { offsetInCU: 0x250E1, offset: 0x250E1, size: 0x8, addend: 0x0, symName: __ZSt7forwardIRcEOT_RNSt16remove_referenceIS1_E4typeE, symObjAddr: 0x5AA8, symBinAddr: 0x10000BB18, symSize: 0x14 }
  - { offsetInCU: 0x250E9, offset: 0x250E9, size: 0x8, addend: 0x0, symName: __ZNSt19__ptr_traits_ptr_toIPccLb0EE10pointer_toERc, symObjAddr: 0x5ABC, symBinAddr: 0x10000BB2C, symSize: 0x1C }
  - { offsetInCU: 0x2512B, offset: 0x2512B, size: 0x8, addend: 0x0, symName: __ZSt11__bit_widthImEiT_, symObjAddr: 0x5A78, symBinAddr: 0x10000BAE8, symSize: 0x30 }
  - { offsetInCU: 0x25133, offset: 0x25133, size: 0x8, addend: 0x0, symName: __ZSt7forwardIRcEOT_RNSt16remove_referenceIS1_E4typeE, symObjAddr: 0x5AA8, symBinAddr: 0x10000BB18, symSize: 0x14 }
  - { offsetInCU: 0x25187, offset: 0x25187, size: 0x8, addend: 0x0, symName: __ZSt11__bit_widthIjEiT_, symObjAddr: 0x5A48, symBinAddr: 0x10000BAB8, symSize: 0x30 }
  - { offsetInCU: 0x2518F, offset: 0x2518F, size: 0x8, addend: 0x0, symName: __ZSt11__bit_widthImEiT_, symObjAddr: 0x5A78, symBinAddr: 0x10000BAE8, symSize: 0x30 }
  - { offsetInCU: 0x251E0, offset: 0x251E0, size: 0x8, addend: 0x0, symName: __Z11show_limitsIjEvv, symObjAddr: 0x599C, symBinAddr: 0x10000BA0C, symSize: 0xAC }
  - { offsetInCU: 0x251E8, offset: 0x251E8, size: 0x8, addend: 0x0, symName: __ZSt11__bit_widthIjEiT_, symObjAddr: 0x5A48, symBinAddr: 0x10000BAB8, symSize: 0x30 }
  - { offsetInCU: 0x251E1, offset: 0x251E1, size: 0x8, addend: 0x0, symName: __ZNSt8__format15__formatter_intIcE8_M_parseIjEEPKcRSt26basic_format_parse_contextIcE, symObjAddr: 0x5974, symBinAddr: 0x10000B9E4, symSize: 0x28 }
  - { offsetInCU: 0x251E9, offset: 0x251E9, size: 0x8, addend: 0x0, symName: __Z11show_limitsIjEvv, symObjAddr: 0x599C, symBinAddr: 0x10000BA0C, symSize: 0xAC }
  - { offsetInCU: 0x2528E, offset: 0x2528E, size: 0x8, addend: 0x0, symName: __Z11show_limitsIeEvv, symObjAddr: 0x58C8, symBinAddr: 0x10000B938, symSize: 0xAC }
  - { offsetInCU: 0x25296, offset: 0x25296, size: 0x8, addend: 0x0, symName: __ZNSt8__format15__formatter_intIcE8_M_parseIjEEPKcRSt26basic_format_parse_contextIcE, symObjAddr: 0x5974, symBinAddr: 0x10000B9E4, symSize: 0x28 }
  - { offsetInCU: 0x252E6, offset: 0x252E6, size: 0x8, addend: 0x0, symName: __Z11show_limitsIdEvv, symObjAddr: 0x581C, symBinAddr: 0x10000B88C, symSize: 0xAC }
  - { offsetInCU: 0x252EE, offset: 0x252EE, size: 0x8, addend: 0x0, symName: __Z11show_limitsIeEvv, symObjAddr: 0x58C8, symBinAddr: 0x10000B938, symSize: 0xAC }
  - { offsetInCU: 0x25342, offset: 0x25342, size: 0x8, addend: 0x0, symName: __Z11show_limitsIfEvv, symObjAddr: 0x5770, symBinAddr: 0x10000B7E0, symSize: 0xAC }
  - { offsetInCU: 0x2534A, offset: 0x2534A, size: 0x8, addend: 0x0, symName: __Z11show_limitsIdEvv, symObjAddr: 0x581C, symBinAddr: 0x10000B88C, symSize: 0xAC }
  - { offsetInCU: 0x2534A, offset: 0x2534A, size: 0x8, addend: 0x0, symName: __ZNSt8__format14__formatter_fpIcE5parseERSt26basic_format_parse_contextIcE, symObjAddr: 0x53E8, symBinAddr: 0x10000B458, symSize: 0x388 }
  - { offsetInCU: 0x25352, offset: 0x25352, size: 0x8, addend: 0x0, symName: __Z11show_limitsIfEvv, symObjAddr: 0x5770, symBinAddr: 0x10000B7E0, symSize: 0xAC }
  - { offsetInCU: 0x254F8, offset: 0x254F8, size: 0x8, addend: 0x0, symName: __ZZNSt8__format14__formatter_fpIcE5parseERSt26basic_format_parse_contextIcEENKUlvE_clEv, symObjAddr: 0x5350, symBinAddr: 0x10000B3C0, symSize: 0x34 }
  - { offsetInCU: 0x25500, offset: 0x25500, size: 0x8, addend: 0x0, symName: __ZZNSt8__format14__formatter_fpIcE5parseERSt26basic_format_parse_contextIcEENKUlvE0_clEv, symObjAddr: 0x5384, symBinAddr: 0x10000B3F4, symSize: 0x64 }
  - { offsetInCU: 0x2566C, offset: 0x2566C, size: 0x8, addend: 0x0, symName: __ZZNSt8__format14__formatter_fpIcE5parseERSt26basic_format_parse_contextIcEENKUlvE0_clEv, symObjAddr: 0x5384, symBinAddr: 0x10000B3F4, symSize: 0x64 }
  - { offsetInCU: 0x25674, offset: 0x25674, size: 0x8, addend: 0x0, symName: __ZNSt8__format14__formatter_fpIcE5parseERSt26basic_format_parse_contextIcE, symObjAddr: 0x53E8, symBinAddr: 0x10000B458, symSize: 0x388 }
  - { offsetInCU: 0x25707, offset: 0x25707, size: 0x8, addend: 0x0, symName: __Z11show_limitsIlEvv, symObjAddr: 0x52A4, symBinAddr: 0x10000B314, symSize: 0xAC }
  - { offsetInCU: 0x2570F, offset: 0x2570F, size: 0x8, addend: 0x0, symName: __ZZNSt8__format14__formatter_fpIcE5parseERSt26basic_format_parse_contextIcEENKUlvE_clEv, symObjAddr: 0x5350, symBinAddr: 0x10000B3C0, symSize: 0x34 }
  - { offsetInCU: 0x25732, offset: 0x25732, size: 0x8, addend: 0x0, symName: __Z11show_limitsIiEvv, symObjAddr: 0x51F8, symBinAddr: 0x10000B268, symSize: 0xAC }
  - { offsetInCU: 0x2573A, offset: 0x2573A, size: 0x8, addend: 0x0, symName: __Z11show_limitsIlEvv, symObjAddr: 0x52A4, symBinAddr: 0x10000B314, symSize: 0xAC }
  - { offsetInCU: 0x2573C, offset: 0x2573C, size: 0x8, addend: 0x0, symName: __ZNSt8__format15__formatter_intIcE8_M_parseIiEEPKcRSt26basic_format_parse_contextIcE, symObjAddr: 0x51D0, symBinAddr: 0x10000B240, symSize: 0x28 }
  - { offsetInCU: 0x25744, offset: 0x25744, size: 0x8, addend: 0x0, symName: __Z11show_limitsIiEvv, symObjAddr: 0x51F8, symBinAddr: 0x10000B268, symSize: 0xAC }
  - { offsetInCU: 0x257E7, offset: 0x257E7, size: 0x8, addend: 0x0, symName: __Z11show_limitsIsEvv, symObjAddr: 0x511C, symBinAddr: 0x10000B18C, symSize: 0xB4 }
  - { offsetInCU: 0x257EF, offset: 0x257EF, size: 0x8, addend: 0x0, symName: __ZNSt8__format15__formatter_intIcE8_M_parseIiEEPKcRSt26basic_format_parse_contextIcE, symObjAddr: 0x51D0, symBinAddr: 0x10000B240, symSize: 0x28 }
  - { offsetInCU: 0x257EB, offset: 0x257EB, size: 0x8, addend: 0x0, symName: __ZNKSt7__cxx1112basic_stringIcSt11char_traitsIcESaIcEE4dataEv, symObjAddr: 0x5100, symBinAddr: 0x10000B170, symSize: 0x1C }
  - { offsetInCU: 0x257F3, offset: 0x257F3, size: 0x8, addend: 0x0, symName: __Z11show_limitsIsEvv, symObjAddr: 0x511C, symBinAddr: 0x10000B18C, symSize: 0xB4 }
  - { offsetInCU: 0x258F0, offset: 0x258F0, size: 0x8, addend: 0x0, symName: __ZNSt17basic_format_argsISt20basic_format_contextINSt8__format10_Sink_iterIcEEcEEC1IJPKcccEEERKNS1_10_Arg_storeIS4_JDpT_EEE, symObjAddr: 0x508C, symBinAddr: 0x10000B0FC, symSize: 0x74 }
  - { offsetInCU: 0x258F8, offset: 0x258F8, size: 0x8, addend: 0x0, symName: __ZNKSt7__cxx1112basic_stringIcSt11char_traitsIcESaIcEE4dataEv, symObjAddr: 0x5100, symBinAddr: 0x10000B170, symSize: 0x1C }
  - { offsetInCU: 0x258D2, offset: 0x258D2, size: 0x8, addend: 0x0, symName: __ZNSt16reverse_iteratorIPKNSt8__format6_Arg_tEEppEv, symObjAddr: 0x5064, symBinAddr: 0x10000B0D4, symSize: 0x28 }
  - { offsetInCU: 0x258DA, offset: 0x258DA, size: 0x8, addend: 0x0, symName: __ZNSt17basic_format_argsISt20basic_format_contextINSt8__format10_Sink_iterIcEEcEEC1IJPKcccEEERKNS1_10_Arg_storeIS4_JDpT_EEE, symObjAddr: 0x508C, symBinAddr: 0x10000B0FC, symSize: 0x74 }
  - { offsetInCU: 0x25903, offset: 0x25903, size: 0x8, addend: 0x0, symName: __ZNKSt16reverse_iteratorIPKNSt8__format6_Arg_tEE4baseEv, symObjAddr: 0x504C, symBinAddr: 0x10000B0BC, symSize: 0x18 }
  - { offsetInCU: 0x2590B, offset: 0x2590B, size: 0x8, addend: 0x0, symName: __ZNSt16reverse_iteratorIPKNSt8__format6_Arg_tEEppEv, symObjAddr: 0x5064, symBinAddr: 0x10000B0D4, symSize: 0x28 }
  - { offsetInCU: 0x2599F, offset: 0x2599F, size: 0x8, addend: 0x0, symName: __ZSteqIPKNSt8__format6_Arg_tEEbRKSt16reverse_iteratorIT_ES8_, symObjAddr: 0x500C, symBinAddr: 0x10000B07C, symSize: 0x40 }
  - { offsetInCU: 0x259A7, offset: 0x259A7, size: 0x8, addend: 0x0, symName: __ZNKSt16reverse_iteratorIPKNSt8__format6_Arg_tEE4baseEv, symObjAddr: 0x504C, symBinAddr: 0x10000B0BC, symSize: 0x18 }
  - { offsetInCU: 0x25994, offset: 0x25994, size: 0x8, addend: 0x0, symName: __ZNKSt5arrayINSt8__format6_Arg_tELm3EE5beginEv, symObjAddr: 0x4FF0, symBinAddr: 0x10000B060, symSize: 0x1C }
  - { offsetInCU: 0x2599C, offset: 0x2599C, size: 0x8, addend: 0x0, symName: __ZSteqIPKNSt8__format6_Arg_tEEbRKSt16reverse_iteratorIT_ES8_, symObjAddr: 0x500C, symBinAddr: 0x10000B07C, symSize: 0x40 }
  - { offsetInCU: 0x259C5, offset: 0x259C5, size: 0x8, addend: 0x0, symName: __ZNKSt5arrayINSt8__format6_Arg_tELm3EE4rendEv, symObjAddr: 0x4FB8, symBinAddr: 0x10000B028, symSize: 0x38 }
  - { offsetInCU: 0x259CD, offset: 0x259CD, size: 0x8, addend: 0x0, symName: __ZNKSt5arrayINSt8__format6_Arg_tELm3EE5beginEv, symObjAddr: 0x4FF0, symBinAddr: 0x10000B060, symSize: 0x1C }
  - { offsetInCU: 0x25A58, offset: 0x25A58, size: 0x8, addend: 0x0, symName: __ZNSt16reverse_iteratorIPKNSt8__format6_Arg_tEEC1ES3_, symObjAddr: 0x4F94, symBinAddr: 0x10000B004, symSize: 0x24 }
  - { offsetInCU: 0x25A60, offset: 0x25A60, size: 0x8, addend: 0x0, symName: __ZNKSt5arrayINSt8__format6_Arg_tELm3EE4rendEv, symObjAddr: 0x4FB8, symBinAddr: 0x10000B028, symSize: 0x38 }
  - { offsetInCU: 0x25A5F, offset: 0x25A5F, size: 0x8, addend: 0x0, symName: __ZNKSt5arrayINSt8__format6_Arg_tELm3EE4dataEv, symObjAddr: 0x4F80, symBinAddr: 0x10000AFF0, symSize: 0x14 }
  - { offsetInCU: 0x25A67, offset: 0x25A67, size: 0x8, addend: 0x0, symName: __ZNSt16reverse_iteratorIPKNSt8__format6_Arg_tEEC1ES3_, symObjAddr: 0x4F94, symBinAddr: 0x10000B004, symSize: 0x24 }
  - { offsetInCU: 0x25A90, offset: 0x25A90, size: 0x8, addend: 0x0, symName: __ZNKSt5arrayINSt8__format6_Arg_tELm3EE3endEv, symObjAddr: 0x4F60, symBinAddr: 0x10000AFD0, symSize: 0x20 }
  - { offsetInCU: 0x25A98, offset: 0x25A98, size: 0x8, addend: 0x0, symName: __ZNKSt5arrayINSt8__format6_Arg_tELm3EE4dataEv, symObjAddr: 0x4F80, symBinAddr: 0x10000AFF0, symSize: 0x14 }
  - { offsetInCU: 0x25AC1, offset: 0x25AC1, size: 0x8, addend: 0x0, symName: __ZNKSt5arrayINSt8__format6_Arg_tELm3EE6rbeginEv, symObjAddr: 0x4F28, symBinAddr: 0x10000AF98, symSize: 0x38 }
  - { offsetInCU: 0x25AC9, offset: 0x25AC9, size: 0x8, addend: 0x0, symName: __ZNKSt5arrayINSt8__format6_Arg_tELm3EE3endEv, symObjAddr: 0x4F60, symBinAddr: 0x10000AFD0, symSize: 0x20 }
  - { offsetInCU: 0x25B58, offset: 0x25B58, size: 0x8, addend: 0x0, symName: __ZNSt8__format16__pack_arg_typesILi5ELm3EEEDaRKSt5arrayINS_6_Arg_tEXT0_EE, symObjAddr: 0x4E94, symBinAddr: 0x10000AF04, symSize: 0x94 }
  - { offsetInCU: 0x25B60, offset: 0x25B60, size: 0x8, addend: 0x0, symName: __ZNKSt5arrayINSt8__format6_Arg_tELm3EE6rbeginEv, symObjAddr: 0x4F28, symBinAddr: 0x10000AF98, symSize: 0x38 }
  - { offsetInCU: 0x25B94, offset: 0x25B94, size: 0x8, addend: 0x0, symName: __ZNKSt16reverse_iteratorIPKNSt8__format6_Arg_tEEdeEv, symObjAddr: 0x4E68, symBinAddr: 0x10000AED8, symSize: 0x2C }
  - { offsetInCU: 0x25B9C, offset: 0x25B9C, size: 0x8, addend: 0x0, symName: __ZNSt8__format16__pack_arg_typesILi5ELm3EEEDaRKSt5arrayINS_6_Arg_tEXT0_EE, symObjAddr: 0x4E94, symBinAddr: 0x10000AF04, symSize: 0x94 }
  - { offsetInCU: 0x25CE2, offset: 0x25CE2, size: 0x8, addend: 0x0, symName: __ZNSt4pairItPKcEC1IRtRS1_EEOT_OT0_, symObjAddr: 0x4E20, symBinAddr: 0x10000AE90, symSize: 0x48 }
  - { offsetInCU: 0x25CEA, offset: 0x25CEA, size: 0x8, addend: 0x0, symName: __ZNKSt16reverse_iteratorIPKNSt8__format6_Arg_tEEdeEv, symObjAddr: 0x4E68, symBinAddr: 0x10000AED8, symSize: 0x2C }
  - { offsetInCU: 0x25D8D, offset: 0x25D8D, size: 0x8, addend: 0x0, symName: __ZNSt8__detail18__from_chars_alnumILb1EtEEbRPKcS2_RT0_i, symObjAddr: 0x4CA0, symBinAddr: 0x10000AD10, symSize: 0x180 }
  - { offsetInCU: 0x25D95, offset: 0x25D95, size: 0x8, addend: 0x0, symName: __ZNSt4pairItPKcEC1IRtRS1_EEOT_OT0_, symObjAddr: 0x4E20, symBinAddr: 0x10000AE90, symSize: 0x48 }
  - { offsetInCU: 0x25E63, offset: 0x25E63, size: 0x8, addend: 0x0, symName: __ZNSt8__detail25__from_chars_alnum_to_valILb1EEEhh, symObjAddr: 0x4C84, symBinAddr: 0x10000ACF4, symSize: 0x1C }
  - { offsetInCU: 0x25E6B, offset: 0x25E6B, size: 0x8, addend: 0x0, symName: __ZNSt8__detail18__from_chars_alnumILb1EtEEbRPKcS2_RT0_i, symObjAddr: 0x4CA0, symBinAddr: 0x10000AD10, symSize: 0x180 }
  - { offsetInCU: 0x25ED1, offset: 0x25ED1, size: 0x8, addend: 0x0, symName: __ZNSt4pairItPKcEC1IiDnEEOT_OT0_, symObjAddr: 0x4C3C, symBinAddr: 0x10000ACAC, symSize: 0x48 }
  - { offsetInCU: 0x25ED9, offset: 0x25ED9, size: 0x8, addend: 0x0, symName: __ZNSt8__detail25__from_chars_alnum_to_valILb1EEEhh, symObjAddr: 0x4C84, symBinAddr: 0x10000ACF4, symSize: 0x1C }
  - { offsetInCU: 0x25F70, offset: 0x25F70, size: 0x8, addend: 0x0, symName: __ZNSt4pairItPKcEC1ERKtRKS1_, symObjAddr: 0x4C00, symBinAddr: 0x10000AC70, symSize: 0x3C }
  - { offsetInCU: 0x25F78, offset: 0x25F78, size: 0x8, addend: 0x0, symName: __ZNSt4pairItPKcEC1IiDnEEOT_OT0_, symObjAddr: 0x4C3C, symBinAddr: 0x10000ACAC, symSize: 0x48 }
  - { offsetInCU: 0x26018, offset: 0x26018, size: 0x8, addend: 0x0, symName: __ZNSt4pairItPKcEC1IiS1_EEOT_OT0_, symObjAddr: 0x4BB4, symBinAddr: 0x10000AC24, symSize: 0x4C }
  - { offsetInCU: 0x26020, offset: 0x26020, size: 0x8, addend: 0x0, symName: __ZNSt4pairItPKcEC1ERKtRKS1_, symObjAddr: 0x4C00, symBinAddr: 0x10000AC70, symSize: 0x3C }
  - { offsetInCU: 0x2605B, offset: 0x2605B, size: 0x8, addend: 0x0, symName: __ZNSt8__format9_Seq_sinkINSt7__cxx1112basic_stringIcSt11char_traitsIcESaIcEEEE11_M_overflowEv, symObjAddr: 0x4AFC, symBinAddr: 0x10000AB6C, symSize: 0xB8 }
  - { offsetInCU: 0x26063, offset: 0x26063, size: 0x8, addend: 0x0, symName: __ZNSt4pairItPKcEC1IiS1_EEOT_OT0_, symObjAddr: 0x4BB4, symBinAddr: 0x10000AC24, symSize: 0x4C }
  - { offsetInCU: 0x260F1, offset: 0x260F1, size: 0x8, addend: 0x0, symName: __ZNKSt4spanIcLm18446744073709551615EE4dataEv, symObjAddr: 0x4AE4, symBinAddr: 0x10000AB54, symSize: 0x18 }
  - { offsetInCU: 0x260F9, offset: 0x260F9, size: 0x8, addend: 0x0, symName: __ZNSt8__format9_Seq_sinkINSt7__cxx1112basic_stringIcSt11char_traitsIcESaIcEEEE11_M_overflowEv, symObjAddr: 0x4AFC, symBinAddr: 0x10000AB6C, symSize: 0xB8 }
  - { offsetInCU: 0x26250, offset: 0x26250, size: 0x8, addend: 0x0, symName: __ZNSt8__format15__do_vformat_toINS_10_Sink_iterIcEEcSt20basic_format_contextIS2_cEEET_S5_St17basic_string_viewIT0_St11char_traitsIS7_EERKSt17basic_format_argsIT1_EPKSt6locale, symObjAddr: 0x4958, symBinAddr: 0x10000A9C8, symSize: 0x18C }
  - { offsetInCU: 0x26258, offset: 0x26258, size: 0x8, addend: 0x0, symName: __ZNKSt4spanIcLm18446744073709551615EE4dataEv, symObjAddr: 0x4AE4, symBinAddr: 0x10000AB54, symSize: 0x18 }
  - { offsetInCU: 0x26331, offset: 0x26331, size: 0x8, addend: 0x0, symName: __ZNSt20basic_format_contextINSt8__format10_Sink_iterIcEEcED1Ev, symObjAddr: 0x4934, symBinAddr: 0x10000A9A4, symSize: 0x24 }
  - { offsetInCU: 0x26339, offset: 0x26339, size: 0x8, addend: 0x0, symName: __ZNSt8__format15__do_vformat_toINS_10_Sink_iterIcEEcSt20basic_format_contextIS2_cEEET_S5_St17basic_string_viewIT0_St11char_traitsIS7_EERKSt17basic_format_argsIT1_EPKSt6locale, symObjAddr: 0x4958, symBinAddr: 0x10000A9C8, symSize: 0x18C }
  - { offsetInCU: 0x2639A, offset: 0x2639A, size: 0x8, addend: 0x0, symName: __ZSt4moveIRNSt8__format10_Sink_iterIcEEEONSt16remove_referenceIT_E4typeEOS5_, symObjAddr: 0x4920, symBinAddr: 0x10000A990, symSize: 0x14 }
  - { offsetInCU: 0x263A2, offset: 0x263A2, size: 0x8, addend: 0x0, symName: __ZNSt20basic_format_contextINSt8__format10_Sink_iterIcEEcED1Ev, symObjAddr: 0x4934, symBinAddr: 0x10000A9A4, symSize: 0x24 }
  - { offsetInCU: 0x263FA, offset: 0x263FA, size: 0x8, addend: 0x0, symName: __ZNSt7__cxx1112basic_stringIcSt11char_traitsIcESaIcEEC1Ev, symObjAddr: 0x4868, symBinAddr: 0x10000A8D8, symSize: 0xB8 }
  - { offsetInCU: 0x26402, offset: 0x26402, size: 0x8, addend: 0x0, symName: __ZSt4moveIRNSt8__format10_Sink_iterIcEEEONSt16remove_referenceIT_E4typeEOS5_, symObjAddr: 0x4920, symBinAddr: 0x10000A990, symSize: 0x14 }
  - { offsetInCU: 0x26522, offset: 0x26522, size: 0x8, addend: 0x0, symName: __ZSt7forwardISt6localeEOT_RNSt16remove_referenceIS1_E4typeE, symObjAddr: 0x4854, symBinAddr: 0x10000A8C4, symSize: 0x14 }
  - { offsetInCU: 0x2652A, offset: 0x2652A, size: 0x8, addend: 0x0, symName: __ZNSt7__cxx1112basic_stringIcSt11char_traitsIcESaIcEEC1Ev, symObjAddr: 0x4868, symBinAddr: 0x10000A8D8, symSize: 0xB8 }
  - { offsetInCU: 0x265B4, offset: 0x265B4, size: 0x8, addend: 0x0, symName: __ZSt4moveIRNSt7__cxx1112basic_stringIcSt11char_traitsIcESaIcEEEEONSt16remove_referenceIT_E4typeEOS8_, symObjAddr: 0x4840, symBinAddr: 0x10000A8B0, symSize: 0x14 }
  - { offsetInCU: 0x265BC, offset: 0x265BC, size: 0x8, addend: 0x0, symName: __ZSt7forwardISt6localeEOT_RNSt16remove_referenceIS1_E4typeE, symObjAddr: 0x4854, symBinAddr: 0x10000A8C4, symSize: 0x14 }
  - { offsetInCU: 0x26579, offset: 0x26579, size: 0x8, addend: 0x0, symName: __ZNKSt7__cxx1112basic_stringIcSt11char_traitsIcESaIcEE8capacityEv, symObjAddr: 0x4804, symBinAddr: 0x10000A874, symSize: 0x3C }
  - { offsetInCU: 0x26581, offset: 0x26581, size: 0x8, addend: 0x0, symName: __ZSt4moveIRNSt7__cxx1112basic_stringIcSt11char_traitsIcESaIcEEEEONSt16remove_referenceIT_E4typeEOS8_, symObjAddr: 0x4840, symBinAddr: 0x10000A8B0, symSize: 0x14 }
  - { offsetInCU: 0x265AA, offset: 0x265AA, size: 0x8, addend: 0x0, symName: __ZNSt7__cxx1112basic_stringIcSt11char_traitsIcESaIcEE13_M_set_lengthEm, symObjAddr: 0x47BC, symBinAddr: 0x10000A82C, symSize: 0x48 }
  - { offsetInCU: 0x265B2, offset: 0x265B2, size: 0x8, addend: 0x0, symName: __ZNKSt7__cxx1112basic_stringIcSt11char_traitsIcESaIcEE8capacityEv, symObjAddr: 0x4804, symBinAddr: 0x10000A874, symSize: 0x3C }
  - { offsetInCU: 0x265EF, offset: 0x265EF, size: 0x8, addend: 0x0, symName: __ZNSt7__cxx1112basic_stringIcSt11char_traitsIcESaIcEE9_M_lengthEm, symObjAddr: 0x4798, symBinAddr: 0x10000A808, symSize: 0x24 }
  - { offsetInCU: 0x265F7, offset: 0x265F7, size: 0x8, addend: 0x0, symName: __ZNSt7__cxx1112basic_stringIcSt11char_traitsIcESaIcEE13_M_set_lengthEm, symObjAddr: 0x47BC, symBinAddr: 0x10000A82C, symSize: 0x48 }
  - { offsetInCU: 0x26634, offset: 0x26634, size: 0x8, addend: 0x0, symName: __ZNSt7__cxx1112basic_stringIcSt11char_traitsIcESaIcEE11_M_capacityEm, symObjAddr: 0x4774, symBinAddr: 0x10000A7E4, symSize: 0x24 }
  - { offsetInCU: 0x2663C, offset: 0x2663C, size: 0x8, addend: 0x0, symName: __ZNSt7__cxx1112basic_stringIcSt11char_traitsIcESaIcEE9_M_lengthEm, symObjAddr: 0x4798, symBinAddr: 0x10000A808, symSize: 0x24 }
  - { offsetInCU: 0x26679, offset: 0x26679, size: 0x8, addend: 0x0, symName: __ZNSt7__cxx1112basic_stringIcSt11char_traitsIcESaIcEE7_M_dataEPc, symObjAddr: 0x4750, symBinAddr: 0x10000A7C0, symSize: 0x24 }
  - { offsetInCU: 0x26681, offset: 0x26681, size: 0x8, addend: 0x0, symName: __ZNSt7__cxx1112basic_stringIcSt11char_traitsIcESaIcEE11_M_capacityEm, symObjAddr: 0x4774, symBinAddr: 0x10000A7E4, symSize: 0x24 }
  - { offsetInCU: 0x266BE, offset: 0x266BE, size: 0x8, addend: 0x0, symName: __ZNKSt7__cxx1112basic_stringIcSt11char_traitsIcESaIcEE6lengthEv, symObjAddr: 0x4738, symBinAddr: 0x10000A7A8, symSize: 0x18 }
  - { offsetInCU: 0x266C6, offset: 0x266C6, size: 0x8, addend: 0x0, symName: __ZNSt7__cxx1112basic_stringIcSt11char_traitsIcESaIcEE7_M_dataEPc, symObjAddr: 0x4750, symBinAddr: 0x10000A7C0, symSize: 0x24 }
  - { offsetInCU: 0x266EF, offset: 0x266EF, size: 0x8, addend: 0x0, symName: __ZNKSt7__cxx1112basic_stringIcSt11char_traitsIcESaIcEE11_M_is_localEv, symObjAddr: 0x46D8, symBinAddr: 0x10000A748, symSize: 0x60 }
  - { offsetInCU: 0x266F7, offset: 0x266F7, size: 0x8, addend: 0x0, symName: __ZNKSt7__cxx1112basic_stringIcSt11char_traitsIcESaIcEE6lengthEv, symObjAddr: 0x4738, symBinAddr: 0x10000A7A8, symSize: 0x18 }
  - { offsetInCU: 0x267AA, offset: 0x267AA, size: 0x8, addend: 0x0, symName: __ZNSt7__cxx1112basic_stringIcSt11char_traitsIcESaIcEE12_Alloc_hiderC1EPcOS3_, symObjAddr: 0x467C, symBinAddr: 0x10000A6EC, symSize: 0x5C }
  - { offsetInCU: 0x267B2, offset: 0x267B2, size: 0x8, addend: 0x0, symName: __ZNKSt7__cxx1112basic_stringIcSt11char_traitsIcESaIcEE11_M_is_localEv, symObjAddr: 0x46D8, symBinAddr: 0x10000A748, symSize: 0x60 }
  - { offsetInCU: 0x26867, offset: 0x26867, size: 0x8, addend: 0x0, symName: __ZSt4moveIRSaIcEEONSt16remove_referenceIT_E4typeEOS3_, symObjAddr: 0x4668, symBinAddr: 0x10000A6D8, symSize: 0x14 }
  - { offsetInCU: 0x2686F, offset: 0x2686F, size: 0x8, addend: 0x0, symName: __ZNSt7__cxx1112basic_stringIcSt11char_traitsIcESaIcEE12_Alloc_hiderC1EPcOS3_, symObjAddr: 0x467C, symBinAddr: 0x10000A6EC, symSize: 0x5C }
  - { offsetInCU: 0x26867, offset: 0x26867, size: 0x8, addend: 0x0, symName: __ZNSt7__cxx1112basic_stringIcSt11char_traitsIcESaIcEE16_M_get_allocatorEv, symObjAddr: 0x4654, symBinAddr: 0x10000A6C4, symSize: 0x14 }
  - { offsetInCU: 0x2686F, offset: 0x2686F, size: 0x8, addend: 0x0, symName: __ZSt4moveIRSaIcEEONSt16remove_referenceIT_E4typeEOS3_, symObjAddr: 0x4668, symBinAddr: 0x10000A6D8, symSize: 0x14 }
  - { offsetInCU: 0x26898, offset: 0x26898, size: 0x8, addend: 0x0, symName: __ZNSt7__cxx1112basic_stringIcSt11char_traitsIcESaIcEE10_M_disposeEv, symObjAddr: 0x4608, symBinAddr: 0x10000A678, symSize: 0x4C }
  - { offsetInCU: 0x268A0, offset: 0x268A0, size: 0x8, addend: 0x0, symName: __ZNSt7__cxx1112basic_stringIcSt11char_traitsIcESaIcEE16_M_get_allocatorEv, symObjAddr: 0x4654, symBinAddr: 0x10000A6C4, symSize: 0x14 }
  - { offsetInCU: 0x268C9, offset: 0x268C9, size: 0x8, addend: 0x0, symName: __ZNSt7__cxx1112basic_stringIcSt11char_traitsIcESaIcEE13_M_local_dataEv, symObjAddr: 0x45E8, symBinAddr: 0x10000A658, symSize: 0x20 }
  - { offsetInCU: 0x268D1, offset: 0x268D1, size: 0x8, addend: 0x0, symName: __ZNSt7__cxx1112basic_stringIcSt11char_traitsIcESaIcEE10_M_disposeEv, symObjAddr: 0x4608, symBinAddr: 0x10000A678, symSize: 0x4C }
  - { offsetInCU: 0x26915, offset: 0x26915, size: 0x8, addend: 0x0, symName: __ZNKSt7__cxx1112basic_stringIcSt11char_traitsIcESaIcEE7_M_dataEv, symObjAddr: 0x45D0, symBinAddr: 0x10000A640, symSize: 0x18 }
  - { offsetInCU: 0x2691D, offset: 0x2691D, size: 0x8, addend: 0x0, symName: __ZNSt7__cxx1112basic_stringIcSt11char_traitsIcESaIcEE13_M_local_dataEv, symObjAddr: 0x45E8, symBinAddr: 0x10000A658, symSize: 0x20 }
  - { offsetInCU: 0x269AF, offset: 0x269AF, size: 0x8, addend: 0x0, symName: __ZSt12construct_atIcJRcEEDTgsnwcvPvLi0E_T_pispcl7declvalIT0_EEEEPS2_DpOS3_, symObjAddr: 0x4588, symBinAddr: 0x10000A5F8, symSize: 0x48 }
  - { offsetInCU: 0x269B7, offset: 0x269B7, size: 0x8, addend: 0x0, symName: __ZNKSt7__cxx1112basic_stringIcSt11char_traitsIcESaIcEE7_M_dataEv, symObjAddr: 0x45D0, symBinAddr: 0x10000A640, symSize: 0x18 }
  - { offsetInCU: 0x269B4, offset: 0x269B4, size: 0x8, addend: 0x0, symName: __ZN9__gnu_cxx11char_traitsIcE6assignERcRKc, symObjAddr: 0x4538, symBinAddr: 0x10000A5A8, symSize: 0x50 }
  - { offsetInCU: 0x269BC, offset: 0x269BC, size: 0x8, addend: 0x0, symName: __ZSt12construct_atIcJRcEEDTgsnwcvPvLi0E_T_pispcl7declvalIT0_EEEEPS2_DpOS3_, symObjAddr: 0x4588, symBinAddr: 0x10000A5F8, symSize: 0x48 }
  - { offsetInCU: 0x26A4A, offset: 0x26A4A, size: 0x8, addend: 0x0, symName: __ZSt7forwardIRKcEOT_RNSt16remove_referenceIS2_E4typeE, symObjAddr: 0x4524, symBinAddr: 0x10000A594, symSize: 0x14 }
  - { offsetInCU: 0x26A52, offset: 0x26A52, size: 0x8, addend: 0x0, symName: __ZN9__gnu_cxx11char_traitsIcE6assignERcRKc, symObjAddr: 0x4538, symBinAddr: 0x10000A5A8, symSize: 0x50 }
  - { offsetInCU: 0x26AAD, offset: 0x26AAD, size: 0x8, addend: 0x0, symName: __ZNSt8__detail10__to_charsImEESt15to_chars_resultPcS2_T_i, symObjAddr: 0x43EC, symBinAddr: 0x10000A45C, symSize: 0x138 }
  - { offsetInCU: 0x26AB5, offset: 0x26AB5, size: 0x8, addend: 0x0, symName: __ZSt7forwardIRKcEOT_RNSt16remove_referenceIS2_E4typeE, symObjAddr: 0x4524, symBinAddr: 0x10000A594, symSize: 0x14 }
  - { offsetInCU: 0x26C9D, offset: 0x26C9D, size: 0x8, addend: 0x0, symName: __ZNSt8__detail12__to_chars_2ImEENSt9enable_ifIXsrSt5__or_IJS2_IJSt7is_sameINSt9remove_cvIT_E4typeEaES3_IS7_sES3_IS7_iES3_IS7_lES3_IS7_xEEES2_IJS3_IS7_hES3_IS7_tES3_IS7_jES3_IS7_mES3_IS7_yEEES3_IS5_nES3_IS5_oES3_IcS7_EEE5valueESt15to_chars_resultE4typeEPcSR_S5_, symObjAddr: 0x42FC, symBinAddr: 0x10000A36C, symSize: 0xF0 }
  - { offsetInCU: 0x26CA5, offset: 0x26CA5, size: 0x8, addend: 0x0, symName: __ZNSt8__detail10__to_charsImEESt15to_chars_resultPcS2_T_i, symObjAddr: 0x43EC, symBinAddr: 0x10000A45C, symSize: 0x138 }
  - { offsetInCU: 0x26D4F, offset: 0x26D4F, size: 0x8, addend: 0x0, symName: __ZNSt8__detail12__to_chars_8ImEENSt9enable_ifIXsrSt5__or_IJS2_IJSt7is_sameINSt9remove_cvIT_E4typeEaES3_IS7_sES3_IS7_iES3_IS7_lES3_IS7_xEEES2_IJS3_IS7_hES3_IS7_tES3_IS7_jES3_IS7_mES3_IS7_yEEES3_IS5_nES3_IS5_oES3_IcS7_EEE5valueESt15to_chars_resultE4typeEPcSR_S5_, symObjAddr: 0x413C, symBinAddr: 0x10000A1AC, symSize: 0x1C0 }
  - { offsetInCU: 0x26D57, offset: 0x26D57, size: 0x8, addend: 0x0, symName: __ZNSt8__detail12__to_chars_2ImEENSt9enable_ifIXsrSt5__or_IJS2_IJSt7is_sameINSt9remove_cvIT_E4typeEaES3_IS7_sES3_IS7_iES3_IS7_lES3_IS7_xEEES2_IJS3_IS7_hES3_IS7_tES3_IS7_jES3_IS7_mES3_IS7_yEEES3_IS5_nES3_IS5_oES3_IcS7_EEE5valueESt15to_chars_resultE4typeEPcSR_S5_, symObjAddr: 0x42FC, symBinAddr: 0x10000A36C, symSize: 0xF0 }
  - { offsetInCU: 0x26E51, offset: 0x26E51, size: 0x8, addend: 0x0, symName: __ZNSt8__detail13__to_chars_10ImEENSt9enable_ifIXsrSt5__or_IJS2_IJSt7is_sameINSt9remove_cvIT_E4typeEaES3_IS7_sES3_IS7_iES3_IS7_lES3_IS7_xEEES2_IJS3_IS7_hES3_IS7_tES3_IS7_jES3_IS7_mES3_IS7_yEEES3_IS5_nES3_IS5_oES3_IcS7_EEE5valueESt15to_chars_resultE4typeEPcSR_S5_, symObjAddr: 0x40A8, symBinAddr: 0x10000A118, symSize: 0x94 }
  - { offsetInCU: 0x26E59, offset: 0x26E59, size: 0x8, addend: 0x0, symName: __ZNSt8__detail12__to_chars_8ImEENSt9enable_ifIXsrSt5__or_IJS2_IJSt7is_sameINSt9remove_cvIT_E4typeEaES3_IS7_sES3_IS7_iES3_IS7_lES3_IS7_xEEES2_IJS3_IS7_hES3_IS7_tES3_IS7_jES3_IS7_mES3_IS7_yEEES3_IS5_nES3_IS5_oES3_IcS7_EEE5valueESt15to_chars_resultE4typeEPcSR_S5_, symObjAddr: 0x413C, symBinAddr: 0x10000A1AC, symSize: 0x1C0 }
  - { offsetInCU: 0x26EEB, offset: 0x26EEB, size: 0x8, addend: 0x0, symName: __ZNSt8__detail13__to_chars_16ImEENSt9enable_ifIXsrSt5__or_IJS2_IJSt7is_sameINSt9remove_cvIT_E4typeEaES3_IS7_sES3_IS7_iES3_IS7_lES3_IS7_xEEES2_IJS3_IS7_hES3_IS7_tES3_IS7_jES3_IS7_mES3_IS7_yEEES3_IS5_nES3_IS5_oES3_IcS7_EEE5valueESt15to_chars_resultE4typeEPcSR_S5_, symObjAddr: 0x3F10, symBinAddr: 0x100009F80, symSize: 0x198 }
  - { offsetInCU: 0x26EF3, offset: 0x26EF3, size: 0x8, addend: 0x0, symName: __ZNSt8__detail13__to_chars_10ImEENSt9enable_ifIXsrSt5__or_IJS2_IJSt7is_sameINSt9remove_cvIT_E4typeEaES3_IS7_sES3_IS7_iES3_IS7_lES3_IS7_xEEES2_IJS3_IS7_hES3_IS7_tES3_IS7_jES3_IS7_mES3_IS7_yEEES3_IS5_nES3_IS5_oES3_IcS7_EEE5valueESt15to_chars_resultE4typeEPcSR_S5_, symObjAddr: 0x40A8, symBinAddr: 0x10000A118, symSize: 0x94 }
  - { offsetInCU: 0x26F1F, offset: 0x26F1F, size: 0x8, addend: 0x0, symName: __ZNSt8__detail16__to_chars_len_2ImEEjT_, symObjAddr: 0x3EF4, symBinAddr: 0x100009F64, symSize: 0x1C }
  - { offsetInCU: 0x26F27, offset: 0x26F27, size: 0x8, addend: 0x0, symName: __ZNSt8__detail13__to_chars_16ImEENSt9enable_ifIXsrSt5__or_IJS2_IJSt7is_sameINSt9remove_cvIT_E4typeEaES3_IS7_sES3_IS7_iES3_IS7_lES3_IS7_xEEES2_IJS3_IS7_hES3_IS7_tES3_IS7_jES3_IS7_mES3_IS7_yEEES3_IS5_nES3_IS5_oES3_IcS7_EEE5valueESt15to_chars_resultE4typeEPcSR_S5_, symObjAddr: 0x3F10, symBinAddr: 0x100009F80, symSize: 0x198 }
  - { offsetInCU: 0x26F72, offset: 0x26F72, size: 0x8, addend: 0x0, symName: __ZNSt8__detail10__to_charsIjEESt15to_chars_resultPcS2_T_i, symObjAddr: 0x3DC0, symBinAddr: 0x100009E30, symSize: 0x134 }
  - { offsetInCU: 0x26F7A, offset: 0x26F7A, size: 0x8, addend: 0x0, symName: __ZNSt8__detail16__to_chars_len_2ImEEjT_, symObjAddr: 0x3EF4, symBinAddr: 0x100009F64, symSize: 0x1C }
  - { offsetInCU: 0x27162, offset: 0x27162, size: 0x8, addend: 0x0, symName: __ZNSt8__detail12__to_chars_2IjEENSt9enable_ifIXsrSt5__or_IJS2_IJSt7is_sameINSt9remove_cvIT_E4typeEaES3_IS7_sES3_IS7_iES3_IS7_lES3_IS7_xEEES2_IJS3_IS7_hES3_IS7_tES3_IS7_jES3_IS7_mES3_IS7_yEEES3_IS5_nES3_IS5_oES3_IcS7_EEE5valueESt15to_chars_resultE4typeEPcSR_S5_, symObjAddr: 0x3CD0, symBinAddr: 0x100009D40, symSize: 0xF0 }
  - { offsetInCU: 0x2716A, offset: 0x2716A, size: 0x8, addend: 0x0, symName: __ZNSt8__detail10__to_charsIjEESt15to_chars_resultPcS2_T_i, symObjAddr: 0x3DC0, symBinAddr: 0x100009E30, symSize: 0x134 }
  - { offsetInCU: 0x27214, offset: 0x27214, size: 0x8, addend: 0x0, symName: __ZNSt8__detail12__to_chars_8IjEENSt9enable_ifIXsrSt5__or_IJS2_IJSt7is_sameINSt9remove_cvIT_E4typeEaES3_IS7_sES3_IS7_iES3_IS7_lES3_IS7_xEEES2_IJS3_IS7_hES3_IS7_tES3_IS7_jES3_IS7_mES3_IS7_yEEES3_IS5_nES3_IS5_oES3_IcS7_EEE5valueESt15to_chars_resultE4typeEPcSR_S5_, symObjAddr: 0x3B10, symBinAddr: 0x100009B80, symSize: 0x1C0 }
  - { offsetInCU: 0x2721C, offset: 0x2721C, size: 0x8, addend: 0x0, symName: __ZNSt8__detail12__to_chars_2IjEENSt9enable_ifIXsrSt5__or_IJS2_IJSt7is_sameINSt9remove_cvIT_E4typeEaES3_IS7_sES3_IS7_iES3_IS7_lES3_IS7_xEEES2_IJS3_IS7_hES3_IS7_tES3_IS7_jES3_IS7_mES3_IS7_yEEES3_IS5_nES3_IS5_oES3_IcS7_EEE5valueESt15to_chars_resultE4typeEPcSR_S5_, symObjAddr: 0x3CD0, symBinAddr: 0x100009D40, symSize: 0xF0 }
  - { offsetInCU: 0x27315, offset: 0x27315, size: 0x8, addend: 0x0, symName: __ZNSt8__detail13__to_chars_10IjEENSt9enable_ifIXsrSt5__or_IJS2_IJSt7is_sameINSt9remove_cvIT_E4typeEaES3_IS7_sES3_IS7_iES3_IS7_lES3_IS7_xEEES2_IJS3_IS7_hES3_IS7_tES3_IS7_jES3_IS7_mES3_IS7_yEEES3_IS5_nES3_IS5_oES3_IcS7_EEE5valueESt15to_chars_resultE4typeEPcSR_S5_, symObjAddr: 0x3A7C, symBinAddr: 0x100009AEC, symSize: 0x94 }
  - { offsetInCU: 0x2731D, offset: 0x2731D, size: 0x8, addend: 0x0, symName: __ZNSt8__detail12__to_chars_8IjEENSt9enable_ifIXsrSt5__or_IJS2_IJSt7is_sameINSt9remove_cvIT_E4typeEaES3_IS7_sES3_IS7_iES3_IS7_lES3_IS7_xEEES2_IJS3_IS7_hES3_IS7_tES3_IS7_jES3_IS7_mES3_IS7_yEEES3_IS5_nES3_IS5_oES3_IcS7_EEE5valueESt15to_chars_resultE4typeEPcSR_S5_, symObjAddr: 0x3B10, symBinAddr: 0x100009B80, symSize: 0x1C0 }
  - { offsetInCU: 0x273AF, offset: 0x273AF, size: 0x8, addend: 0x0, symName: __ZNSt8__detail13__to_chars_16IjEENSt9enable_ifIXsrSt5__or_IJS2_IJSt7is_sameINSt9remove_cvIT_E4typeEaES3_IS7_sES3_IS7_iES3_IS7_lES3_IS7_xEEES2_IJS3_IS7_hES3_IS7_tES3_IS7_jES3_IS7_mES3_IS7_yEEES3_IS5_nES3_IS5_oES3_IcS7_EEE5valueESt15to_chars_resultE4typeEPcSR_S5_, symObjAddr: 0x38E4, symBinAddr: 0x100009954, symSize: 0x198 }
  - { offsetInCU: 0x273B7, offset: 0x273B7, size: 0x8, addend: 0x0, symName: __ZNSt8__detail13__to_chars_10IjEENSt9enable_ifIXsrSt5__or_IJS2_IJSt7is_sameINSt9remove_cvIT_E4typeEaES3_IS7_sES3_IS7_iES3_IS7_lES3_IS7_xEEES2_IJS3_IS7_hES3_IS7_tES3_IS7_jES3_IS7_mES3_IS7_yEEES3_IS5_nES3_IS5_oES3_IcS7_EEE5valueESt15to_chars_resultE4typeEPcSR_S5_, symObjAddr: 0x3A7C, symBinAddr: 0x100009AEC, symSize: 0x94 }
  - { offsetInCU: 0x273E1, offset: 0x273E1, size: 0x8, addend: 0x0, symName: __ZNSt8__detail16__to_chars_len_2IjEEjT_, symObjAddr: 0x38C8, symBinAddr: 0x100009938, symSize: 0x1C }
  - { offsetInCU: 0x273E9, offset: 0x273E9, size: 0x8, addend: 0x0, symName: __ZNSt8__detail13__to_chars_16IjEENSt9enable_ifIXsrSt5__or_IJS2_IJSt7is_sameINSt9remove_cvIT_E4typeEaES3_IS7_sES3_IS7_iES3_IS7_lES3_IS7_xEEES2_IJS3_IS7_hES3_IS7_tES3_IS7_jES3_IS7_mES3_IS7_yEEES3_IS5_nES3_IS5_oES3_IcS7_EEE5valueESt15to_chars_resultE4typeEPcSR_S5_, symObjAddr: 0x38E4, symBinAddr: 0x100009954, symSize: 0x198 }
  - { offsetInCU: 0x2745E, offset: 0x2745E, size: 0x8, addend: 0x0, symName: __Z15show_all_limitsIJcsilfdejEEvv, symObjAddr: 0x3894, symBinAddr: 0x100009904, symSize: 0x34 }
  - { offsetInCU: 0x27466, offset: 0x27466, size: 0x8, addend: 0x0, symName: __ZNSt8__detail16__to_chars_len_2IjEEjT_, symObjAddr: 0x38C8, symBinAddr: 0x100009938, symSize: 0x1C }
  - { offsetInCU: 0x27501, offset: 0x27501, size: 0x8, addend: 0x0, symName: __ZSt6formatIJPKcccEENSt7__cxx1112basic_stringIcSt11char_traitsIcESaIcEEESt19basic_format_stringIcJDpNSt13type_identityIT_E4typeEEEDpOSA_, symObjAddr: 0x37D4, symBinAddr: 0x100009844, symSize: 0xC0 }
  - { offsetInCU: 0x27509, offset: 0x27509, size: 0x8, addend: 0x0, symName: __Z15show_all_limitsIJcsilfdejEEvv, symObjAddr: 0x3894, symBinAddr: 0x100009904, symSize: 0x34 }
  - { offsetInCU: 0x27671, offset: 0x27671, size: 0x8, addend: 0x0, symName: __ZNSt8__format15__parse_integerIcEESt4pairItPKT_ES4_S4_, symObjAddr: 0x3720, symBinAddr: 0x100009790, symSize: 0xB4 }
  - { offsetInCU: 0x27679, offset: 0x27679, size: 0x8, addend: 0x0, symName: __ZSt6formatIJPKcccEENSt7__cxx1112basic_stringIcSt11char_traitsIcESaIcEEESt19basic_format_stringIcJDpNSt13type_identityIT_E4typeEEEDpOSA_, symObjAddr: 0x37D4, symBinAddr: 0x100009844, symSize: 0xC0 }
  - { offsetInCU: 0x276BD, offset: 0x276BD, size: 0x8, addend: 0x0, symName: __ZNSt8__format5_SpecIcE18_M_parse_precisionEPKcS3_RSt26basic_format_parse_contextIcE, symObjAddr: 0x3664, symBinAddr: 0x1000096D4, symSize: 0xBC }
  - { offsetInCU: 0x276C5, offset: 0x276C5, size: 0x8, addend: 0x0, symName: __ZNSt8__format15__parse_integerIcEESt4pairItPKT_ES4_S4_, symObjAddr: 0x3720, symBinAddr: 0x100009790, symSize: 0xB4 }
  - { offsetInCU: 0x27754, offset: 0x27754, size: 0x8, addend: 0x0, symName: __ZNSt26basic_format_parse_contextIcE12check_arg_idEm, symObjAddr: 0x35FC, symBinAddr: 0x10000966C, symSize: 0x68 }
  - { offsetInCU: 0x2775C, offset: 0x2775C, size: 0x8, addend: 0x0, symName: __ZNSt8__format5_SpecIcE18_M_parse_precisionEPKcS3_RSt26basic_format_parse_contextIcE, symObjAddr: 0x3664, symBinAddr: 0x1000096D4, symSize: 0xBC }
  - { offsetInCU: 0x277EA, offset: 0x277EA, size: 0x8, addend: 0x0, symName: __ZNSt8__format14__parse_arg_idIcEESt4pairItPKT_ES4_S4_, symObjAddr: 0x34E8, symBinAddr: 0x100009558, symSize: 0x114 }
  - { offsetInCU: 0x277F2, offset: 0x277F2, size: 0x8, addend: 0x0, symName: __ZNSt26basic_format_parse_contextIcE12check_arg_idEm, symObjAddr: 0x35FC, symBinAddr: 0x10000966C, symSize: 0x68 }
  - { offsetInCU: 0x2783A, offset: 0x2783A, size: 0x8, addend: 0x0, symName: __ZNOSt8__format9_Seq_sinkINSt7__cxx1112basic_stringIcSt11char_traitsIcESaIcEEEE3getEv, symObjAddr: 0x34A4, symBinAddr: 0x100009514, symSize: 0x44 }
  - { offsetInCU: 0x27842, offset: 0x27842, size: 0x8, addend: 0x0, symName: __ZNSt8__format14__parse_arg_idIcEESt4pairItPKT_ES4_S4_, symObjAddr: 0x34E8, symBinAddr: 0x100009558, symSize: 0x114 }
  - { offsetInCU: 0x27930, offset: 0x27930, size: 0x8, addend: 0x0, symName: __ZSt4moveIRNSt8__format9_Seq_sinkINSt7__cxx1112basic_stringIcSt11char_traitsIcESaIcEEEEEEONSt16remove_referenceIT_E4typeEOSB_, symObjAddr: 0x3490, symBinAddr: 0x100009500, symSize: 0x14 }
  - { offsetInCU: 0x27938, offset: 0x27938, size: 0x8, addend: 0x0, symName: __ZNOSt8__format9_Seq_sinkINSt7__cxx1112basic_stringIcSt11char_traitsIcESaIcEEEE3getEv, symObjAddr: 0x34A4, symBinAddr: 0x100009514, symSize: 0x44 }
  - { offsetInCU: 0x279DC, offset: 0x279DC, size: 0x8, addend: 0x0, symName: __ZSt12construct_atISt6localeJEEDTgsnwcvPvLi0E_T_pispcl7declvalIT0_EEEEPS2_DpOS3_, symObjAddr: 0x3454, symBinAddr: 0x1000094C4, symSize: 0x3C }
  - { offsetInCU: 0x279E4, offset: 0x279E4, size: 0x8, addend: 0x0, symName: __ZSt4moveIRNSt8__format9_Seq_sinkINSt7__cxx1112basic_stringIcSt11char_traitsIcESaIcEEEEEEONSt16remove_referenceIT_E4typeEOSB_, symObjAddr: 0x3490, symBinAddr: 0x100009500, symSize: 0x14 }
  - { offsetInCU: 0x27A43, offset: 0x27A43, size: 0x8, addend: 0x0, symName: __ZSt12construct_atISt6localeJS0_EEDTgsnwcvPvLi0E_T_pispcl7declvalIT0_EEEEPS2_DpOS3_, symObjAddr: 0x3408, symBinAddr: 0x100009478, symSize: 0x4C }
  - { offsetInCU: 0x27A4B, offset: 0x27A4B, size: 0x8, addend: 0x0, symName: __ZSt12construct_atISt6localeJEEDTgsnwcvPvLi0E_T_pispcl7declvalIT0_EEEEPS2_DpOS3_, symObjAddr: 0x3454, symBinAddr: 0x1000094C4, symSize: 0x3C }
  - { offsetInCU: 0x27A83, offset: 0x27A83, size: 0x8, addend: 0x0, symName: __ZSt4moveIRSt6localeEONSt16remove_referenceIT_E4typeEOS3_, symObjAddr: 0x33F4, symBinAddr: 0x100009464, symSize: 0x14 }
  - { offsetInCU: 0x27A8B, offset: 0x27A8B, size: 0x8, addend: 0x0, symName: __ZSt12construct_atISt6localeJS0_EEDTgsnwcvPvLi0E_T_pispcl7declvalIT0_EEEEPS2_DpOS3_, symObjAddr: 0x3408, symBinAddr: 0x100009478, symSize: 0x4C }
  - { offsetInCU: 0x27ADB, offset: 0x27ADB, size: 0x8, addend: 0x0, symName: __ZNSt8__detail18__to_chars_10_implImEEvPcjT_, symObjAddr: 0x3258, symBinAddr: 0x1000092C8, symSize: 0x19C }
  - { offsetInCU: 0x27AE3, offset: 0x27AE3, size: 0x8, addend: 0x0, symName: __ZSt4moveIRSt6localeEONSt16remove_referenceIT_E4typeEOS3_, symObjAddr: 0x33F4, symBinAddr: 0x100009464, symSize: 0x14 }
  - { offsetInCU: 0x27BB7, offset: 0x27BB7, size: 0x8, addend: 0x0, symName: __ZNSt8__detail14__to_chars_lenImEEjT_i, symObjAddr: 0x317C, symBinAddr: 0x1000091EC, symSize: 0xDC }
  - { offsetInCU: 0x27BBF, offset: 0x27BBF, size: 0x8, addend: 0x0, symName: __ZNSt8__detail18__to_chars_10_implImEEvPcjT_, symObjAddr: 0x3258, symBinAddr: 0x1000092C8, symSize: 0x19C }
  - { offsetInCU: 0x27C80, offset: 0x27C80, size: 0x8, addend: 0x0, symName: __ZNSt7__cxx1112basic_stringIcSt11char_traitsIcESaIcEEC1EOS4_, symObjAddr: 0x3088, symBinAddr: 0x1000090F8, symSize: 0xF4 }
  - { offsetInCU: 0x27C88, offset: 0x27C88, size: 0x8, addend: 0x0, symName: __ZNSt8__detail14__to_chars_lenImEEjT_i, symObjAddr: 0x317C, symBinAddr: 0x1000091EC, symSize: 0xDC }
  - { offsetInCU: 0x27CCE, offset: 0x27CCE, size: 0x8, addend: 0x0, symName: __ZNSt8__detail18__to_chars_10_implIjEEvPcjT_, symObjAddr: 0x2F04, symBinAddr: 0x100008F74, symSize: 0x184 }
  - { offsetInCU: 0x27CD6, offset: 0x27CD6, size: 0x8, addend: 0x0, symName: __ZNSt7__cxx1112basic_stringIcSt11char_traitsIcESaIcEEC1EOS4_, symObjAddr: 0x3088, symBinAddr: 0x1000090F8, symSize: 0xF4 }
  - { offsetInCU: 0x27D62, offset: 0x27D62, size: 0x8, addend: 0x0, symName: __ZNSt7__cxx1112basic_stringIcSt11char_traitsIcESaIcEEixEm, symObjAddr: 0x2E98, symBinAddr: 0x100008F08, symSize: 0x6C }
  - { offsetInCU: 0x27D6A, offset: 0x27D6A, size: 0x8, addend: 0x0, symName: __ZNSt8__detail18__to_chars_10_implIjEEvPcjT_, symObjAddr: 0x2F04, symBinAddr: 0x100008F74, symSize: 0x184 }
  - { offsetInCU: 0x27E0B, offset: 0x27E0B, size: 0x8, addend: 0x0, symName: __ZNSt7__cxx1112basic_stringIcSt11char_traitsIcESaIcEED1Ev, symObjAddr: 0x2E70, symBinAddr: 0x100008EE0, symSize: 0x28 }
  - { offsetInCU: 0x27E13, offset: 0x27E13, size: 0x8, addend: 0x0, symName: __ZNSt7__cxx1112basic_stringIcSt11char_traitsIcESaIcEEixEm, symObjAddr: 0x2E98, symBinAddr: 0x100008F08, symSize: 0x6C }
  - { offsetInCU: 0x27E76, offset: 0x27E76, size: 0x8, addend: 0x0, symName: __ZNSt7__cxx1112basic_stringIcSt11char_traitsIcESaIcEE12_Alloc_hiderD1Ev, symObjAddr: 0x2E50, symBinAddr: 0x100008EC0, symSize: 0x20 }
  - { offsetInCU: 0x27E7E, offset: 0x27E7E, size: 0x8, addend: 0x0, symName: __ZNSt7__cxx1112basic_stringIcSt11char_traitsIcESaIcEED1Ev, symObjAddr: 0x2E70, symBinAddr: 0x100008EE0, symSize: 0x28 }
  - { offsetInCU: 0x27F13, offset: 0x27F13, size: 0x8, addend: 0x0, symName: __ZNSt8__detail14__to_chars_lenIjEEjT_i, symObjAddr: 0x2D78, symBinAddr: 0x100008DE8, symSize: 0xD8 }
  - { offsetInCU: 0x27F1B, offset: 0x27F1B, size: 0x8, addend: 0x0, symName: __ZNSt7__cxx1112basic_stringIcSt11char_traitsIcESaIcEE12_Alloc_hiderD1Ev, symObjAddr: 0x2E50, symBinAddr: 0x100008EC0, symSize: 0x20 }
  - { offsetInCU: 0x27FE9, offset: 0x27FE9, size: 0x8, addend: 0x0, symName: __ZNSt17basic_string_viewIcSt11char_traitsIcEEC1EPKcm, symObjAddr: 0x2D44, symBinAddr: 0x100008DB4, symSize: 0x34 }
  - { offsetInCU: 0x27FF1, offset: 0x27FF1, size: 0x8, addend: 0x0, symName: __ZNSt8__detail14__to_chars_lenIjEEjT_i, symObjAddr: 0x2D78, symBinAddr: 0x100008DE8, symSize: 0xD8 }
  - { offsetInCU: 0x27FFE, offset: 0x27FFE, size: 0x8, addend: 0x0, symName: __ZNKSt17basic_string_viewIcSt11char_traitsIcEE4dataEv, symObjAddr: 0x2D2C, symBinAddr: 0x100008D9C, symSize: 0x18 }
  - { offsetInCU: 0x28006, offset: 0x28006, size: 0x8, addend: 0x0, symName: __ZNSt17basic_string_viewIcSt11char_traitsIcEEC1EPKcm, symObjAddr: 0x2D44, symBinAddr: 0x100008DB4, symSize: 0x34 }
  - { offsetInCU: 0x2802F, offset: 0x2802F, size: 0x8, addend: 0x0, symName: __ZN9__gnu_cxx11char_traitsIcE6assignEPcmc, symObjAddr: 0x2C90, symBinAddr: 0x100008D00, symSize: 0x9C }
  - { offsetInCU: 0x28037, offset: 0x28037, size: 0x8, addend: 0x0, symName: __ZNKSt17basic_string_viewIcSt11char_traitsIcEE4dataEv, symObjAddr: 0x2D2C, symBinAddr: 0x100008D9C, symSize: 0x18 }
  - { offsetInCU: 0x280DA, offset: 0x280DA, size: 0x8, addend: 0x0, symName: __ZN9__gnu_cxx11char_traitsIcE4copyEPcPKcm, symObjAddr: 0x2BD8, symBinAddr: 0x100008C48, symSize: 0xB8 }
  - { offsetInCU: 0x280E2, offset: 0x280E2, size: 0x8, addend: 0x0, symName: __ZN9__gnu_cxx11char_traitsIcE6assignEPcmc, symObjAddr: 0x2C90, symBinAddr: 0x100008D00, symSize: 0x9C }
  - { offsetInCU: 0x2815D, offset: 0x2815D, size: 0x8, addend: 0x0, symName: __ZN9__gnu_cxx11char_traitsIcE4moveEPcPKcm, symObjAddr: 0x2A9C, symBinAddr: 0x100008B0C, symSize: 0x13C }
  - { offsetInCU: 0x28165, offset: 0x28165, size: 0x8, addend: 0x0, symName: __ZN9__gnu_cxx11char_traitsIcE4copyEPcPKcm, symObjAddr: 0x2BD8, symBinAddr: 0x100008C48, symSize: 0xB8 }
  - { offsetInCU: 0x28287, offset: 0x28287, size: 0x8, addend: 0x0, symName: __ZSt12construct_atIcJRKcEEDTgsnwcvPvLi0E_T_pispcl7declvalIT0_EEEEPS3_DpOS4_, symObjAddr: 0x2A54, symBinAddr: 0x100008AC4, symSize: 0x48 }
  - { offsetInCU: 0x2828F, offset: 0x2828F, size: 0x8, addend: 0x0, symName: __ZN9__gnu_cxx11char_traitsIcE4moveEPcPKcm, symObjAddr: 0x2A9C, symBinAddr: 0x100008B0C, symSize: 0x13C }
  - { offsetInCU: 0x282B6, offset: 0x282B6, size: 0x8, addend: 0x0, symName: __ZSt13__countl_zeroIiEiT_, symObjAddr: 0x29FC, symBinAddr: 0x100008A6C, symSize: 0x58 }
  - { offsetInCU: 0x282BE, offset: 0x282BE, size: 0x8, addend: 0x0, symName: __ZSt12construct_atIcJRKcEEDTgsnwcvPvLi0E_T_pispcl7declvalIT0_EEEEPS3_DpOS4_, symObjAddr: 0x2A54, symBinAddr: 0x100008AC4, symSize: 0x48 }
  - { offsetInCU: 0x28478, offset: 0x28478, size: 0x8, addend: 0x0, symName: __ZSt12__to_chars_iIyENSt9enable_ifIXsrSt5__or_IJS1_IJSt7is_sameINSt9remove_cvIT_E4typeEaES2_IS6_sES2_IS6_iES2_IS6_lES2_IS6_xEEES1_IJS2_IS6_hES2_IS6_tES2_IS6_jES2_IS6_mES2_IS6_yEEES2_IS4_nES2_IS4_oES2_IcS6_EEE5valueESt15to_chars_resultE4typeEPcSQ_S4_i, symObjAddr: 0x2854, symBinAddr: 0x1000088C4, symSize: 0x1A8 }
  - { offsetInCU: 0x28480, offset: 0x28480, size: 0x8, addend: 0x0, symName: __ZSt13__countl_zeroIiEiT_, symObjAddr: 0x29FC, symBinAddr: 0x100008A6C, symSize: 0x58 }
  - { offsetInCU: 0x28531, offset: 0x28531, size: 0x8, addend: 0x0, symName: __ZSt12__to_chars_iImENSt9enable_ifIXsrSt5__or_IJS1_IJSt7is_sameINSt9remove_cvIT_E4typeEaES2_IS6_sES2_IS6_iES2_IS6_lES2_IS6_xEEES1_IJS2_IS6_hES2_IS6_tES2_IS6_jES2_IS6_mES2_IS6_yEEES2_IS4_nES2_IS4_oES2_IcS6_EEE5valueESt15to_chars_resultE4typeEPcSQ_S4_i, symObjAddr: 0x26AC, symBinAddr: 0x10000871C, symSize: 0x1A8 }
  - { offsetInCU: 0x28539, offset: 0x28539, size: 0x8, addend: 0x0, symName: __ZSt12__to_chars_iIyENSt9enable_ifIXsrSt5__or_IJS1_IJSt7is_sameINSt9remove_cvIT_E4typeEaES2_IS6_sES2_IS6_iES2_IS6_lES2_IS6_xEEES1_IJS2_IS6_hES2_IS6_tES2_IS6_jES2_IS6_mES2_IS6_yEEES2_IS4_nES2_IS4_oES2_IcS6_EEE5valueESt15to_chars_resultE4typeEPcSQ_S4_i, symObjAddr: 0x2854, symBinAddr: 0x1000088C4, symSize: 0x1A8 }
  - { offsetInCU: 0x285EA, offset: 0x285EA, size: 0x8, addend: 0x0, symName: __ZSt12__to_chars_iIjENSt9enable_ifIXsrSt5__or_IJS1_IJSt7is_sameINSt9remove_cvIT_E4typeEaES2_IS6_sES2_IS6_iES2_IS6_lES2_IS6_xEEES1_IJS2_IS6_hES2_IS6_tES2_IS6_jES2_IS6_mES2_IS6_yEEES2_IS4_nES2_IS4_oES2_IcS6_EEE5valueESt15to_chars_resultE4typeEPcSQ_S4_i, symObjAddr: 0x2504, symBinAddr: 0x100008574, symSize: 0x1A8 }
  - { offsetInCU: 0x285F2, offset: 0x285F2, size: 0x8, addend: 0x0, symName: __ZSt12__to_chars_iImENSt9enable_ifIXsrSt5__or_IJS1_IJSt7is_sameINSt9remove_cvIT_E4typeEaES2_IS6_sES2_IS6_iES2_IS6_lES2_IS6_xEEES1_IJS2_IS6_hES2_IS6_tES2_IS6_jES2_IS6_mES2_IS6_yEEES2_IS4_nES2_IS4_oES2_IcS6_EEE5valueESt15to_chars_resultE4typeEPcSQ_S4_i, symObjAddr: 0x26AC, symBinAddr: 0x10000871C, symSize: 0x1A8 }
  - { offsetInCU: 0x286B9, offset: 0x286B9, size: 0x8, addend: 0x0, symName: __ZSt12__to_chars_iIhENSt9enable_ifIXsrSt5__or_IJS1_IJSt7is_sameINSt9remove_cvIT_E4typeEaES2_IS6_sES2_IS6_iES2_IS6_lES2_IS6_xEEES1_IJS2_IS6_hES2_IS6_tES2_IS6_jES2_IS6_mES2_IS6_yEEES2_IS4_nES2_IS4_oES2_IcS6_EEE5valueESt15to_chars_resultE4typeEPcSQ_S4_i, symObjAddr: 0x235C, symBinAddr: 0x1000083CC, symSize: 0x1A8 }
  - { offsetInCU: 0x286C1, offset: 0x286C1, size: 0x8, addend: 0x0, symName: __ZSt12__to_chars_iIjENSt9enable_ifIXsrSt5__or_IJS1_IJSt7is_sameINSt9remove_cvIT_E4typeEaES2_IS6_sES2_IS6_iES2_IS6_lES2_IS6_xEEES1_IJS2_IS6_hES2_IS6_tES2_IS6_jES2_IS6_mES2_IS6_yEEES2_IS4_nES2_IS4_oES2_IcS6_EEE5valueESt15to_chars_resultE4typeEPcSQ_S4_i, symObjAddr: 0x2504, symBinAddr: 0x100008574, symSize: 0x1A8 }
  - { offsetInCU: 0x28665, offset: 0x28665, size: 0x8, addend: 0x0, symName: _main, symObjAddr: 0x2344, symBinAddr: 0x1000083B4, symSize: 0x18 }
  - { offsetInCU: 0x2866D, offset: 0x2866D, size: 0x8, addend: 0x0, symName: __ZSt12__to_chars_iIhENSt9enable_ifIXsrSt5__or_IJS1_IJSt7is_sameINSt9remove_cvIT_E4typeEaES2_IS6_sES2_IS6_iES2_IS6_lES2_IS6_xEEES1_IJS2_IS6_hES2_IS6_tES2_IS6_jES2_IS6_mES2_IS6_yEEES2_IS4_nES2_IS4_oES2_IcS6_EEE5valueESt15to_chars_resultE4typeEPcSQ_S4_i, symObjAddr: 0x235C, symBinAddr: 0x1000083CC, symSize: 0x1A8 }
  - { offsetInCU: 0x286A8, offset: 0x286A8, size: 0x8, addend: 0x0, symName: __Z11show_limitsIcEvv, symObjAddr: 0x2290, symBinAddr: 0x100008300, symSize: 0xB4 }
  - { offsetInCU: 0x286B0, offset: 0x286B0, size: 0x8, addend: 0x0, symName: _main, symObjAddr: 0x2344, symBinAddr: 0x1000083B4, symSize: 0x18 }
  - { offsetInCU: 0x286B1, offset: 0x286B1, size: 0x8, addend: 0x0, symName: __ZNSt8__format5_SpecIcE15_M_parse_localeEPKcS3_, symObjAddr: 0x2248, symBinAddr: 0x1000082B8, symSize: 0x48 }
  - { offsetInCU: 0x286B9, offset: 0x286B9, size: 0x8, addend: 0x0, symName: __Z11show_limitsIcEvv, symObjAddr: 0x2290, symBinAddr: 0x100008300, symSize: 0xB4 }
  - { offsetInCU: 0x28757, offset: 0x28757, size: 0x8, addend: 0x0, symName: __ZNSt8__detail25__from_chars_alnum_to_valILb0EEEhh, symObjAddr: 0x2224, symBinAddr: 0x100008294, symSize: 0x24 }
  - { offsetInCU: 0x2875F, offset: 0x2875F, size: 0x8, addend: 0x0, symName: __ZNSt8__format5_SpecIcE15_M_parse_localeEPKcS3_, symObjAddr: 0x2248, symBinAddr: 0x1000082B8, symSize: 0x48 }
  - { offsetInCU: 0x28752, offset: 0x28752, size: 0x8, addend: 0x0, symName: __ZNSt8__format5_SpecIcE27_S_parse_width_or_precisionEPKcS3_RtRbRSt26basic_format_parse_contextIcE, symObjAddr: 0x2074, symBinAddr: 0x1000080E4, symSize: 0x1B0 }
  - { offsetInCU: 0x2875A, offset: 0x2875A, size: 0x8, addend: 0x0, symName: __ZNSt8__detail25__from_chars_alnum_to_valILb0EEEhh, symObjAddr: 0x2224, symBinAddr: 0x100008294, symSize: 0x24 }
  - { offsetInCU: 0x28884, offset: 0x28884, size: 0x8, addend: 0x0, symName: __ZNSt8__format5_SpecIcE14_M_parse_widthEPKcS3_RSt26basic_format_parse_contextIcE, symObjAddr: 0x1FCC, symBinAddr: 0x10000803C, symSize: 0xA8 }
  - { offsetInCU: 0x2888C, offset: 0x2888C, size: 0x8, addend: 0x0, symName: __ZNSt8__format5_SpecIcE27_S_parse_width_or_precisionEPKcS3_RtRbRSt26basic_format_parse_contextIcE, symObjAddr: 0x2074, symBinAddr: 0x1000080E4, symSize: 0x1B0 }
  - { offsetInCU: 0x2891B, offset: 0x2891B, size: 0x8, addend: 0x0, symName: __ZNSt8__format5_SpecIcE18_M_parse_zero_fillEPKcS3_, symObjAddr: 0x1F84, symBinAddr: 0x100007FF4, symSize: 0x48 }
  - { offsetInCU: 0x28923, offset: 0x28923, size: 0x8, addend: 0x0, symName: __ZNSt8__format5_SpecIcE14_M_parse_widthEPKcS3_RSt26basic_format_parse_contextIcE, symObjAddr: 0x1FCC, symBinAddr: 0x10000803C, symSize: 0xA8 }
  - { offsetInCU: 0x2896D, offset: 0x2896D, size: 0x8, addend: 0x0, symName: __ZNSt8__format5_SpecIcE23_M_parse_alternate_formEPKcS3_, symObjAddr: 0x1F3C, symBinAddr: 0x100007FAC, symSize: 0x48 }
  - { offsetInCU: 0x28975, offset: 0x28975, size: 0x8, addend: 0x0, symName: __ZNSt8__format5_SpecIcE18_M_parse_zero_fillEPKcS3_, symObjAddr: 0x1F84, symBinAddr: 0x100007FF4, symSize: 0x48 }
  - { offsetInCU: 0x289BF, offset: 0x289BF, size: 0x8, addend: 0x0, symName: __ZNSt8__format5_SpecIcE7_S_signEc, symObjAddr: 0x1EEC, symBinAddr: 0x100007F5C, symSize: 0x50 }
  - { offsetInCU: 0x289C7, offset: 0x289C7, size: 0x8, addend: 0x0, symName: __ZNSt8__format5_SpecIcE23_M_parse_alternate_formEPKcS3_, symObjAddr: 0x1F3C, symBinAddr: 0x100007FAC, symSize: 0x48 }
  - { offsetInCU: 0x289F2, offset: 0x289F2, size: 0x8, addend: 0x0, symName: __ZNSt8__format5_SpecIcE13_M_parse_signEPKcS3_, symObjAddr: 0x1E88, symBinAddr: 0x100007EF8, symSize: 0x64 }
  - { offsetInCU: 0x289FA, offset: 0x289FA, size: 0x8, addend: 0x0, symName: __ZNSt8__format5_SpecIcE7_S_signEc, symObjAddr: 0x1EEC, symBinAddr: 0x100007F5C, symSize: 0x50 }
  - { offsetInCU: 0x28A6C, offset: 0x28A6C, size: 0x8, addend: 0x0, symName: __ZNSt8__format5_SpecIcE8_S_alignEc, symObjAddr: 0x1E34, symBinAddr: 0x100007EA4, symSize: 0x54 }
  - { offsetInCU: 0x28A74, offset: 0x28A74, size: 0x8, addend: 0x0, symName: __ZNSt8__format5_SpecIcE13_M_parse_signEPKcS3_, symObjAddr: 0x1E88, symBinAddr: 0x100007EF8, symSize: 0x64 }
  - { offsetInCU: 0x28A9F, offset: 0x28A9F, size: 0x8, addend: 0x0, symName: __ZNSt8__format5_SpecIcE23_M_parse_fill_and_alignEPKcS3_, symObjAddr: 0x1D48, symBinAddr: 0x100007DB8, symSize: 0xEC }
  - { offsetInCU: 0x28AA7, offset: 0x28AA7, size: 0x8, addend: 0x0, symName: __ZNSt8__format5_SpecIcE8_S_alignEc, symObjAddr: 0x1E34, symBinAddr: 0x100007EA4, symSize: 0x54 }
  - { offsetInCU: 0x28B48, offset: 0x28B48, size: 0x8, addend: 0x0, symName: __ZNSt8__format15__formatter_intIcE11_M_do_parseERSt26basic_format_parse_contextIcENS_10_Pres_typeE, symObjAddr: 0x19AC, symBinAddr: 0x100007A1C, symSize: 0x39C }
  - { offsetInCU: 0x28B50, offset: 0x28B50, size: 0x8, addend: 0x0, symName: __ZNSt8__format5_SpecIcE23_M_parse_fill_and_alignEPKcS3_, symObjAddr: 0x1D48, symBinAddr: 0x100007DB8, symSize: 0xEC }
  - { offsetInCU: 0x28D23, offset: 0x28D23, size: 0x8, addend: 0x0, symName: __ZZNSt8__format15__formatter_intIcE11_M_do_parseERSt26basic_format_parse_contextIcENS_10_Pres_typeEENKUlvE_clEv, symObjAddr: 0x1914, symBinAddr: 0x100007984, symSize: 0x34 }
  - { offsetInCU: 0x28D2B, offset: 0x28D2B, size: 0x8, addend: 0x0, symName: __ZZNSt8__format15__formatter_intIcE11_M_do_parseERSt26basic_format_parse_contextIcENS_10_Pres_typeEENKUlvE0_clEv, symObjAddr: 0x1948, symBinAddr: 0x1000079B8, symSize: 0x64 }
  - { offsetInCU: 0x28E97, offset: 0x28E97, size: 0x8, addend: 0x0, symName: __ZZNSt8__format15__formatter_intIcE11_M_do_parseERSt26basic_format_parse_contextIcENS_10_Pres_typeEENKUlvE0_clEv, symObjAddr: 0x1948, symBinAddr: 0x1000079B8, symSize: 0x64 }
  - { offsetInCU: 0x28E9F, offset: 0x28E9F, size: 0x8, addend: 0x0, symName: __ZNSt8__format15__formatter_intIcE11_M_do_parseERSt26basic_format_parse_contextIcENS_10_Pres_typeE, symObjAddr: 0x19AC, symBinAddr: 0x100007A1C, symSize: 0x39C }
  - { offsetInCU: 0x28EC2, offset: 0x28EC2, size: 0x8, addend: 0x0, symName: __ZNSt8__format15__formatter_intIcE8_M_parseIcEEPKcRSt26basic_format_parse_contextIcE, symObjAddr: 0x1858, symBinAddr: 0x1000078C8, symSize: 0xBC }
  - { offsetInCU: 0x28ECA, offset: 0x28ECA, size: 0x8, addend: 0x0, symName: __ZZNSt8__format15__formatter_intIcE11_M_do_parseERSt26basic_format_parse_contextIcENS_10_Pres_typeEENKUlvE_clEv, symObjAddr: 0x1914, symBinAddr: 0x100007984, symSize: 0x34 }
  - { offsetInCU: 0x28F3C, offset: 0x28F3C, size: 0x8, addend: 0x0, symName: __ZNSt9formatterIccE5parseERSt26basic_format_parse_contextIcE, symObjAddr: 0x1834, symBinAddr: 0x1000078A4, symSize: 0x24 }
  - { offsetInCU: 0x28F44, offset: 0x28F44, size: 0x8, addend: 0x0, symName: __ZNSt8__format15__formatter_intIcE8_M_parseIcEEPKcRSt26basic_format_parse_contextIcE, symObjAddr: 0x1858, symBinAddr: 0x1000078C8, symSize: 0xBC }
  - { offsetInCU: 0x28F81, offset: 0x28F81, size: 0x8, addend: 0x0, symName: __ZNSt8__format15__formatter_strIcE5parseERSt26basic_format_parse_contextIcE, symObjAddr: 0x16CC, symBinAddr: 0x10000773C, symSize: 0x168 }
  - { offsetInCU: 0x28F89, offset: 0x28F89, size: 0x8, addend: 0x0, symName: __ZNSt9formatterIccE5parseERSt26basic_format_parse_contextIcE, symObjAddr: 0x1834, symBinAddr: 0x1000078A4, symSize: 0x24 }
  - { offsetInCU: 0x29130, offset: 0x29130, size: 0x8, addend: 0x0, symName: __ZZNSt8__format15__formatter_strIcE5parseERSt26basic_format_parse_contextIcEENKUlvE_clEv, symObjAddr: 0x1634, symBinAddr: 0x1000076A4, symSize: 0x34 }
  - { offsetInCU: 0x29138, offset: 0x29138, size: 0x8, addend: 0x0, symName: __ZZNSt8__format15__formatter_strIcE5parseERSt26basic_format_parse_contextIcEENKUlvE0_clEv, symObjAddr: 0x1668, symBinAddr: 0x1000076D8, symSize: 0x64 }
  - { offsetInCU: 0x292A4, offset: 0x292A4, size: 0x8, addend: 0x0, symName: __ZZNSt8__format15__formatter_strIcE5parseERSt26basic_format_parse_contextIcEENKUlvE0_clEv, symObjAddr: 0x1668, symBinAddr: 0x1000076D8, symSize: 0x64 }
  - { offsetInCU: 0x292AC, offset: 0x292AC, size: 0x8, addend: 0x0, symName: __ZNSt8__format15__formatter_strIcE5parseERSt26basic_format_parse_contextIcE, symObjAddr: 0x16CC, symBinAddr: 0x10000773C, symSize: 0x168 }
  - { offsetInCU: 0x29313, offset: 0x29313, size: 0x8, addend: 0x0, symName: __ZNSt26basic_format_parse_contextIcE11next_arg_idEv, symObjAddr: 0x15BC, symBinAddr: 0x10000762C, symSize: 0x78 }
  - { offsetInCU: 0x2931B, offset: 0x2931B, size: 0x8, addend: 0x0, symName: __ZZNSt8__format15__formatter_strIcE5parseERSt26basic_format_parse_contextIcEENKUlvE_clEv, symObjAddr: 0x1634, symBinAddr: 0x1000076A4, symSize: 0x34 }
  - { offsetInCU: 0x29344, offset: 0x29344, size: 0x8, addend: 0x0, symName: __ZNSt8__format8_ScannerIcE23_M_on_replacement_fieldEv, symObjAddr: 0x13E8, symBinAddr: 0x100007458, symSize: 0x1D4 }
  - { offsetInCU: 0x2934C, offset: 0x2934C, size: 0x8, addend: 0x0, symName: __ZNSt26basic_format_parse_contextIcE11next_arg_idEv, symObjAddr: 0x15BC, symBinAddr: 0x10000762C, symSize: 0x78 }
  - { offsetInCU: 0x29439, offset: 0x29439, size: 0x8, addend: 0x0, symName: __ZSt7forwardIPKcEOT_RNSt16remove_referenceIS2_E4typeE, symObjAddr: 0x13D4, symBinAddr: 0x100007444, symSize: 0x14 }
  - { offsetInCU: 0x29441, offset: 0x29441, size: 0x8, addend: 0x0, symName: __ZNSt8__format8_ScannerIcE23_M_on_replacement_fieldEv, symObjAddr: 0x13E8, symBinAddr: 0x100007458, symSize: 0x1D4 }
  - { offsetInCU: 0x29440, offset: 0x29440, size: 0x8, addend: 0x0, symName: __ZNSt10__pair_getILm1EE10__move_getItPKcEEOT0_OSt4pairIT_S4_E, symObjAddr: 0x13B4, symBinAddr: 0x100007424, symSize: 0x20 }
  - { offsetInCU: 0x29448, offset: 0x29448, size: 0x8, addend: 0x0, symName: __ZSt7forwardIPKcEOT_RNSt16remove_referenceIS2_E4typeE, symObjAddr: 0x13D4, symBinAddr: 0x100007444, symSize: 0x14 }
  - { offsetInCU: 0x294FF, offset: 0x294FF, size: 0x8, addend: 0x0, symName: __ZSt3getILm1EtPKcEONSt13tuple_elementIXT_ESt4pairIT0_T1_EE4typeEOS6_, symObjAddr: 0x1394, symBinAddr: 0x100007404, symSize: 0x20 }
  - { offsetInCU: 0x29507, offset: 0x29507, size: 0x8, addend: 0x0, symName: __ZNSt10__pair_getILm1EE10__move_getItPKcEEOT0_OSt4pairIT_S4_E, symObjAddr: 0x13B4, symBinAddr: 0x100007424, symSize: 0x20 }
  - { offsetInCU: 0x29548, offset: 0x29548, size: 0x8, addend: 0x0, symName: __ZSt7forwardItEOT_RNSt16remove_referenceIS0_E4typeE, symObjAddr: 0x1380, symBinAddr: 0x1000073F0, symSize: 0x14 }
  - { offsetInCU: 0x29550, offset: 0x29550, size: 0x8, addend: 0x0, symName: __ZSt3getILm1EtPKcEONSt13tuple_elementIXT_ESt4pairIT0_T1_EE4typeEOS6_, symObjAddr: 0x1394, symBinAddr: 0x100007404, symSize: 0x20 }
  - { offsetInCU: 0x29554, offset: 0x29554, size: 0x8, addend: 0x0, symName: __ZNSt10__pair_getILm0EE10__move_getItPKcEEOT_OSt4pairIS4_T0_E, symObjAddr: 0x1364, symBinAddr: 0x1000073D4, symSize: 0x1C }
  - { offsetInCU: 0x2955C, offset: 0x2955C, size: 0x8, addend: 0x0, symName: __ZSt7forwardItEOT_RNSt16remove_referenceIS0_E4typeE, symObjAddr: 0x1380, symBinAddr: 0x1000073F0, symSize: 0x14 }
  - { offsetInCU: 0x29615, offset: 0x29615, size: 0x8, addend: 0x0, symName: __ZSt4moveIRSt4pairItPKcEEONSt16remove_referenceIT_E4typeEOS6_, symObjAddr: 0x1350, symBinAddr: 0x1000073C0, symSize: 0x14 }
  - { offsetInCU: 0x2961D, offset: 0x2961D, size: 0x8, addend: 0x0, symName: __ZNSt10__pair_getILm0EE10__move_getItPKcEEOT_OSt4pairIS4_T0_E, symObjAddr: 0x1364, symBinAddr: 0x1000073D4, symSize: 0x1C }
  - { offsetInCU: 0x29669, offset: 0x29669, size: 0x8, addend: 0x0, symName: __ZSt3getILm0EtPKcEONSt13tuple_elementIXT_ESt4pairIT0_T1_EE4typeEOS6_, symObjAddr: 0x1330, symBinAddr: 0x1000073A0, symSize: 0x20 }
  - { offsetInCU: 0x29671, offset: 0x29671, size: 0x8, addend: 0x0, symName: __ZSt4moveIRSt4pairItPKcEEONSt16remove_referenceIT_E4typeEOS6_, symObjAddr: 0x1350, symBinAddr: 0x1000073C0, symSize: 0x14 }
  - { offsetInCU: 0x2965E, offset: 0x2965E, size: 0x8, addend: 0x0, symName: __ZNSt26basic_format_parse_contextIcE10advance_toEPKc, symObjAddr: 0x130C, symBinAddr: 0x10000737C, symSize: 0x24 }
  - { offsetInCU: 0x29666, offset: 0x29666, size: 0x8, addend: 0x0, symName: __ZSt3getILm0EtPKcEONSt13tuple_elementIXT_ESt4pairIT0_T1_EE4typeEOS6_, symObjAddr: 0x1330, symBinAddr: 0x1000073A0, symSize: 0x20 }
  - { offsetInCU: 0x296A3, offset: 0x296A3, size: 0x8, addend: 0x0, symName: __ZNSt8__format8_ScannerIcE11_M_on_charsEPKc, symObjAddr: 0x12F4, symBinAddr: 0x100007364, symSize: 0x18 }
  - { offsetInCU: 0x296AB, offset: 0x296AB, size: 0x8, addend: 0x0, symName: __ZNSt26basic_format_parse_contextIcE10advance_toEPKc, symObjAddr: 0x130C, symBinAddr: 0x10000737C, symSize: 0x24 }
  - { offsetInCU: 0x296E1, offset: 0x296E1, size: 0x8, addend: 0x0, symName: __ZN9__gnu_cxx11char_traitsIcE4findEPKcmRS2_, symObjAddr: 0x127C, symBinAddr: 0x1000072EC, symSize: 0x78 }
  - { offsetInCU: 0x296E9, offset: 0x296E9, size: 0x8, addend: 0x0, symName: __ZNSt8__format8_ScannerIcE11_M_on_charsEPKc, symObjAddr: 0x12F4, symBinAddr: 0x100007364, symSize: 0x18 }
  - { offsetInCU: 0x29766, offset: 0x29766, size: 0x8, addend: 0x0, symName: __ZNKSt17basic_string_viewIcSt11char_traitsIcEE4findEcm, symObjAddr: 0x11E8, symBinAddr: 0x100007258, symSize: 0x94 }
  - { offsetInCU: 0x2976E, offset: 0x2976E, size: 0x8, addend: 0x0, symName: __ZN9__gnu_cxx11char_traitsIcE4findEPKcmRS2_, symObjAddr: 0x127C, symBinAddr: 0x1000072EC, symSize: 0x78 }
  - { offsetInCU: 0x29844, offset: 0x29844, size: 0x8, addend: 0x0, symName: __ZSt12__to_addressIKcEPT_S2_, symObjAddr: 0x11D4, symBinAddr: 0x100007244, symSize: 0x14 }
  - { offsetInCU: 0x2984C, offset: 0x2984C, size: 0x8, addend: 0x0, symName: __ZNKSt17basic_string_viewIcSt11char_traitsIcEE4findEcm, symObjAddr: 0x11E8, symBinAddr: 0x100007258, symSize: 0x94 }
  - { offsetInCU: 0x2988C, offset: 0x2988C, size: 0x8, addend: 0x0, symName: __ZSt10to_addressIKcEPT_S2_, symObjAddr: 0x11B8, symBinAddr: 0x100007228, symSize: 0x1C }
  - { offsetInCU: 0x29894, offset: 0x29894, size: 0x8, addend: 0x0, symName: __ZSt12__to_addressIKcEPT_S2_, symObjAddr: 0x11D4, symBinAddr: 0x100007244, symSize: 0x14 }
  - { offsetInCU: 0x29937, offset: 0x29937, size: 0x8, addend: 0x0, symName: __ZNSt17basic_string_viewIcSt11char_traitsIcEEC1IPKcS5_EET_T0_, symObjAddr: 0x116C, symBinAddr: 0x1000071DC, symSize: 0x4C }
  - { offsetInCU: 0x2993F, offset: 0x2993F, size: 0x8, addend: 0x0, symName: __ZSt10to_addressIKcEPT_S2_, symObjAddr: 0x11B8, symBinAddr: 0x100007228, symSize: 0x1C }
  - { offsetInCU: 0x2995D, offset: 0x2995D, size: 0x8, addend: 0x0, symName: __ZNKSt26basic_format_parse_contextIcE3endEv, symObjAddr: 0x1154, symBinAddr: 0x1000071C4, symSize: 0x18 }
  - { offsetInCU: 0x29965, offset: 0x29965, size: 0x8, addend: 0x0, symName: __ZNSt17basic_string_viewIcSt11char_traitsIcEEC1IPKcS5_EET_T0_, symObjAddr: 0x116C, symBinAddr: 0x1000071DC, symSize: 0x4C }
  - { offsetInCU: 0x2998E, offset: 0x2998E, size: 0x8, addend: 0x0, symName: __ZNKSt8__format8_ScannerIcE3endEv, symObjAddr: 0x1134, symBinAddr: 0x1000071A4, symSize: 0x20 }
  - { offsetInCU: 0x29996, offset: 0x29996, size: 0x8, addend: 0x0, symName: __ZNKSt26basic_format_parse_contextIcE3endEv, symObjAddr: 0x1154, symBinAddr: 0x1000071C4, symSize: 0x18 }
  - { offsetInCU: 0x299BF, offset: 0x299BF, size: 0x8, addend: 0x0, symName: __ZNKSt26basic_format_parse_contextIcE5beginEv, symObjAddr: 0x111C, symBinAddr: 0x10000718C, symSize: 0x18 }
  - { offsetInCU: 0x299C7, offset: 0x299C7, size: 0x8, addend: 0x0, symName: __ZNKSt8__format8_ScannerIcE3endEv, symObjAddr: 0x1134, symBinAddr: 0x1000071A4, symSize: 0x20 }
  - { offsetInCU: 0x299F0, offset: 0x299F0, size: 0x8, addend: 0x0, symName: __ZNKSt8__format8_ScannerIcE5beginEv, symObjAddr: 0x10FC, symBinAddr: 0x10000716C, symSize: 0x20 }
  - { offsetInCU: 0x299F8, offset: 0x299F8, size: 0x8, addend: 0x0, symName: __ZNKSt26basic_format_parse_contextIcE5beginEv, symObjAddr: 0x111C, symBinAddr: 0x10000718C, symSize: 0x18 }
  - { offsetInCU: 0x29A21, offset: 0x29A21, size: 0x8, addend: 0x0, symName: __ZNKSt8__format8_ScannerIcE10_M_fmt_strEv, symObjAddr: 0x10B4, symBinAddr: 0x100007124, symSize: 0x48 }
  - { offsetInCU: 0x29A29, offset: 0x29A29, size: 0x8, addend: 0x0, symName: __ZNKSt8__format8_ScannerIcE5beginEv, symObjAddr: 0x10FC, symBinAddr: 0x10000716C, symSize: 0x20 }
  - { offsetInCU: 0x29A52, offset: 0x29A52, size: 0x8, addend: 0x0, symName: __ZNSt8__format8_ScannerIcE7_M_scanEv, symObjAddr: 0xC90, symBinAddr: 0x100006D00, symSize: 0x424 }
  - { offsetInCU: 0x29A5A, offset: 0x29A5A, size: 0x8, addend: 0x0, symName: __ZNKSt8__format8_ScannerIcE10_M_fmt_strEv, symObjAddr: 0x10B4, symBinAddr: 0x100007124, symSize: 0x48 }
  - { offsetInCU: 0x29B52, offset: 0x29B52, size: 0x8, addend: 0x0, symName: __ZNKSt17basic_string_viewIcSt11char_traitsIcEEixEm, symObjAddr: 0xC2C, symBinAddr: 0x100006C9C, symSize: 0x64 }
  - { offsetInCU: 0x29B5A, offset: 0x29B5A, size: 0x8, addend: 0x0, symName: __ZNSt8__format8_ScannerIcE7_M_scanEv, symObjAddr: 0xC90, symBinAddr: 0x100006D00, symSize: 0x424 }
  - { offsetInCU: 0x29B97, offset: 0x29B97, size: 0x8, addend: 0x0, symName: __ZNKSt17basic_string_viewIcSt11char_traitsIcEE4sizeEv, symObjAddr: 0xC14, symBinAddr: 0x100006C84, symSize: 0x18 }
  - { offsetInCU: 0x29B9F, offset: 0x29B9F, size: 0x8, addend: 0x0, symName: __ZNKSt17basic_string_viewIcSt11char_traitsIcEEixEm, symObjAddr: 0xC2C, symBinAddr: 0x100006C9C, symSize: 0x64 }
  - { offsetInCU: 0x29BC8, offset: 0x29BC8, size: 0x8, addend: 0x0, symName: __ZNKSt17basic_string_viewIcSt11char_traitsIcEE3endEv, symObjAddr: 0xBF0, symBinAddr: 0x100006C60, symSize: 0x24 }
  - { offsetInCU: 0x29BD0, offset: 0x29BD0, size: 0x8, addend: 0x0, symName: __ZNKSt17basic_string_viewIcSt11char_traitsIcEE4sizeEv, symObjAddr: 0xC14, symBinAddr: 0x100006C84, symSize: 0x18 }
  - { offsetInCU: 0x29BF9, offset: 0x29BF9, size: 0x8, addend: 0x0, symName: __ZNKSt17basic_string_viewIcSt11char_traitsIcEE5beginEv, symObjAddr: 0xBD8, symBinAddr: 0x100006C48, symSize: 0x18 }
  - { offsetInCU: 0x29C01, offset: 0x29C01, size: 0x8, addend: 0x0, symName: __ZNKSt17basic_string_viewIcSt11char_traitsIcEE3endEv, symObjAddr: 0xBF0, symBinAddr: 0x100006C60, symSize: 0x24 }
  - { offsetInCU: 0x29CBA, offset: 0x29CBA, size: 0x8, addend: 0x0, symName: __ZNSt26basic_format_parse_contextIcEC1ESt17basic_string_viewIcSt11char_traitsIcEEm, symObjAddr: 0xB74, symBinAddr: 0x100006BE4, symSize: 0x64 }
  - { offsetInCU: 0x29CC2, offset: 0x29CC2, size: 0x8, addend: 0x0, symName: __ZNKSt17basic_string_viewIcSt11char_traitsIcEE5beginEv, symObjAddr: 0xBD8, symBinAddr: 0x100006C48, symSize: 0x18 }
  - { offsetInCU: 0x29D39, offset: 0x29D39, size: 0x8, addend: 0x0, symName: __ZNSt8__format8_ScannerIcEC2ESt17basic_string_viewIcSt11char_traitsIcEEm, symObjAddr: 0xB2C, symBinAddr: 0x100006B9C, symSize: 0x48 }
  - { offsetInCU: 0x29D41, offset: 0x29D41, size: 0x8, addend: 0x0, symName: __ZNSt26basic_format_parse_contextIcEC1ESt17basic_string_viewIcSt11char_traitsIcEEm, symObjAddr: 0xB74, symBinAddr: 0x100006BE4, symSize: 0x64 }
  - { offsetInCU: 0x29D3A, offset: 0x29D3A, size: 0x8, addend: 0x0, symName: __ZN9__gnu_cxx11char_traitsIcE2eqERKcS3_, symObjAddr: 0xAFC, symBinAddr: 0x100006B6C, symSize: 0x30 }
  - { offsetInCU: 0x29D42, offset: 0x29D42, size: 0x8, addend: 0x0, symName: __ZNSt8__format8_ScannerIcEC2ESt17basic_string_viewIcSt11char_traitsIcEEm, symObjAddr: 0xB2C, symBinAddr: 0x100006B9C, symSize: 0x48 }
  - { offsetInCU: 0x29D81, offset: 0x29D81, size: 0x8, addend: 0x0, symName: __ZN9__gnu_cxx11char_traitsIcE6lengthEPKc, symObjAddr: 0xAA0, symBinAddr: 0x100006B10, symSize: 0x5C }
  - { offsetInCU: 0x29D89, offset: 0x29D89, size: 0x8, addend: 0x0, symName: __ZN9__gnu_cxx11char_traitsIcE2eqERKcS3_, symObjAddr: 0xAFC, symBinAddr: 0x100006B6C, symSize: 0x30 }
  - { offsetInCU: 0x29E27, offset: 0x29E27, size: 0x8, addend: 0x0, symName: __ZNSt17basic_string_viewIcSt11char_traitsIcEEC1EPKc, symObjAddr: 0xA64, symBinAddr: 0x100006AD4, symSize: 0x3C }
  - { offsetInCU: 0x29E2F, offset: 0x29E2F, size: 0x8, addend: 0x0, symName: __ZN9__gnu_cxx11char_traitsIcE6lengthEPKc, symObjAddr: 0xAA0, symBinAddr: 0x100006B10, symSize: 0x5C }
  - { offsetInCU: 0x29EC9, offset: 0x29EC9, size: 0x8, addend: 0x0, symName: __ZSt7vformatB5cxx11St17basic_string_viewIcSt11char_traitsIcEESt17basic_format_argsISt20basic_format_contextINSt8__format10_Sink_iterIcEEcEE, symObjAddr: 0x91C, symBinAddr: 0x10000698C, symSize: 0x148 }
  - { offsetInCU: 0x29ED1, offset: 0x29ED1, size: 0x8, addend: 0x0, symName: __ZNSt17basic_string_viewIcSt11char_traitsIcEEC1EPKc, symObjAddr: 0xA64, symBinAddr: 0x100006AD4, symSize: 0x3C }
  - { offsetInCU: 0x2A04C, offset: 0x2A04C, size: 0x8, addend: 0x0, symName: __ZNSt8__format9_Seq_sinkINSt7__cxx1112basic_stringIcSt11char_traitsIcESaIcEEEED1Ev, symObjAddr: 0x8E4, symBinAddr: 0x100006954, symSize: 0x38 }
  - { offsetInCU: 0x2A054, offset: 0x2A054, size: 0x8, addend: 0x0, symName: __ZSt7vformatB5cxx11St17basic_string_viewIcSt11char_traitsIcEESt17basic_format_argsISt20basic_format_contextINSt8__format10_Sink_iterIcEEcEE, symObjAddr: 0x91C, symBinAddr: 0x10000698C, symSize: 0x148 }
  - { offsetInCU: 0x2A029, offset: 0x2A029, size: 0x8, addend: 0x0, symName: __ZNSt8__format16_Optional_locale5valueEv, symObjAddr: 0x89C, symBinAddr: 0x10000690C, symSize: 0x48 }
  - { offsetInCU: 0x2A031, offset: 0x2A031, size: 0x8, addend: 0x0, symName: __ZNSt8__format9_Seq_sinkINSt7__cxx1112basic_stringIcSt11char_traitsIcESaIcEEEED1Ev, symObjAddr: 0x8E4, symBinAddr: 0x100006954, symSize: 0x38 }
  - { offsetInCU: 0x2A05A, offset: 0x2A05A, size: 0x8, addend: 0x0, symName: __ZNSt8__format16_Optional_localeaSEOSt6locale, symObjAddr: 0x828, symBinAddr: 0x100006898, symSize: 0x74 }
  - { offsetInCU: 0x2A062, offset: 0x2A062, size: 0x8, addend: 0x0, symName: __ZNSt8__format16_Optional_locale5valueEv, symObjAddr: 0x89C, symBinAddr: 0x10000690C, symSize: 0x48 }
  - { offsetInCU: 0x2A0EE, offset: 0x2A0EE, size: 0x8, addend: 0x0, symName: __ZNSt8__format16_Optional_localeD1Ev, symObjAddr: 0x7F4, symBinAddr: 0x100006864, symSize: 0x34 }
  - { offsetInCU: 0x2A0F6, offset: 0x2A0F6, size: 0x8, addend: 0x0, symName: __ZNSt8__format16_Optional_localeaSEOSt6locale, symObjAddr: 0x828, symBinAddr: 0x100006898, symSize: 0x74 }
  - { offsetInCU: 0x2A155, offset: 0x2A155, size: 0x8, addend: 0x0, symName: __ZNSt8__format16_Optional_localeC1ERKSt6locale, symObjAddr: 0x7C0, symBinAddr: 0x100006830, symSize: 0x34 }
  - { offsetInCU: 0x2A15D, offset: 0x2A15D, size: 0x8, addend: 0x0, symName: __ZNSt8__format16_Optional_localeD1Ev, symObjAddr: 0x7F4, symBinAddr: 0x100006864, symSize: 0x34 }
  - { offsetInCU: 0x2A1AD, offset: 0x2A1AD, size: 0x8, addend: 0x0, symName: __ZNSt8__format11__is_xdigitEc, symObjAddr: 0x794, symBinAddr: 0x100006804, symSize: 0x2C }
  - { offsetInCU: 0x2A1B5, offset: 0x2A1B5, size: 0x8, addend: 0x0, symName: __ZNSt8__format16_Optional_localeC1ERKSt6locale, symObjAddr: 0x7C0, symBinAddr: 0x100006830, symSize: 0x34 }
  - { offsetInCU: 0x2A1EA, offset: 0x2A1EA, size: 0x8, addend: 0x0, symName: __ZNSt8__format10__is_digitEc, symObjAddr: 0x768, symBinAddr: 0x1000067D8, symSize: 0x2C }
  - { offsetInCU: 0x2A1F2, offset: 0x2A1F2, size: 0x8, addend: 0x0, symName: __ZNSt8__format11__is_xdigitEc, symObjAddr: 0x794, symBinAddr: 0x100006804, symSize: 0x2C }
  - { offsetInCU: 0x2A24B, offset: 0x2A24B, size: 0x8, addend: 0x0, symName: __ZNSt8__format29__failed_to_parse_format_specEv, symObjAddr: 0x754, symBinAddr: 0x1000067C4, symSize: 0x14 }
  - { offsetInCU: 0x2A253, offset: 0x2A253, size: 0x8, addend: 0x0, symName: __ZNSt8__format10__is_digitEc, symObjAddr: 0x768, symBinAddr: 0x1000067D8, symSize: 0x2C }
  - { offsetInCU: 0x2A275, offset: 0x2A275, size: 0x8, addend: 0x0, symName: __ZNSt8__format33__invalid_arg_id_in_format_stringEv, symObjAddr: 0x740, symBinAddr: 0x1000067B0, symSize: 0x14 }
  - { offsetInCU: 0x2A27D, offset: 0x2A27D, size: 0x8, addend: 0x0, symName: __ZNSt8__format29__failed_to_parse_format_specEv, symObjAddr: 0x754, symBinAddr: 0x1000067C4, symSize: 0x14 }
  - { offsetInCU: 0x2A2A3, offset: 0x2A2A3, size: 0x8, addend: 0x0, symName: __ZNSt8__format39__conflicting_indexing_in_format_stringEv, symObjAddr: 0x72C, symBinAddr: 0x10000679C, symSize: 0x14 }
  - { offsetInCU: 0x2A2AB, offset: 0x2A2AB, size: 0x8, addend: 0x0, symName: __ZNSt8__format33__invalid_arg_id_in_format_stringEv, symObjAddr: 0x740, symBinAddr: 0x1000067B0, symSize: 0x14 }
  - { offsetInCU: 0x2A2C7, offset: 0x2A2C7, size: 0x8, addend: 0x0, symName: __ZNSt8__format40__unmatched_right_brace_in_format_stringEv, symObjAddr: 0x718, symBinAddr: 0x100006788, symSize: 0x14 }
  - { offsetInCU: 0x2A2CF, offset: 0x2A2CF, size: 0x8, addend: 0x0, symName: __ZNSt8__format39__conflicting_indexing_in_format_stringEv, symObjAddr: 0x72C, symBinAddr: 0x10000679C, symSize: 0x14 }
  - { offsetInCU: 0x2A2E7, offset: 0x2A2E7, size: 0x8, addend: 0x0, symName: __ZNSt8__format39__unmatched_left_brace_in_format_stringEv, symObjAddr: 0x704, symBinAddr: 0x100006774, symSize: 0x14 }
  - { offsetInCU: 0x2A2EF, offset: 0x2A2EF, size: 0x8, addend: 0x0, symName: __ZNSt8__format40__unmatched_right_brace_in_format_stringEv, symObjAddr: 0x718, symBinAddr: 0x100006788, symSize: 0x14 }
  - { offsetInCU: 0x2A2D9, offset: 0x2A2D9, size: 0x8, addend: 0x0, symName: __ZSt20__throw_format_errorPKc, symObjAddr: 0x6B0, symBinAddr: 0x100006720, symSize: 0x54 }
  - { offsetInCU: 0x2A2E1, offset: 0x2A2E1, size: 0x8, addend: 0x0, symName: __ZNSt8__format39__unmatched_left_brace_in_format_stringEv, symObjAddr: 0x704, symBinAddr: 0x100006774, symSize: 0x14 }
  - { offsetInCU: 0x2A322, offset: 0x2A322, size: 0x8, addend: 0x0, symName: __ZNSt12format_errorD0Ev, symObjAddr: 0x688, symBinAddr: 0x1000066F8, symSize: 0x28 }
  - { offsetInCU: 0x2A32A, offset: 0x2A32A, size: 0x8, addend: 0x0, symName: __ZSt20__throw_format_errorPKc, symObjAddr: 0x6B0, symBinAddr: 0x100006720, symSize: 0x54 }
  - { offsetInCU: 0x2A352, offset: 0x2A352, size: 0x8, addend: 0x0, symName: __ZNSt12format_errorD1Ev, symObjAddr: 0x654, symBinAddr: 0x1000066C4, symSize: 0x34 }
  - { offsetInCU: 0x2A35A, offset: 0x2A35A, size: 0x8, addend: 0x0, symName: __ZNSt12format_errorD0Ev, symObjAddr: 0x688, symBinAddr: 0x1000066F8, symSize: 0x28 }
  - { offsetInCU: 0x2A3B0, offset: 0x2A3B0, size: 0x8, addend: 0x0, symName: __ZNSt12format_errorC1EPKc, symObjAddr: 0x618, symBinAddr: 0x100006688, symSize: 0x3C }
  - { offsetInCU: 0x2A3B8, offset: 0x2A3B8, size: 0x8, addend: 0x0, symName: __ZNSt12format_errorD1Ev, symObjAddr: 0x654, symBinAddr: 0x1000066C4, symSize: 0x34 }
  - { offsetInCU: 0x2A3D3, offset: 0x2A3D3, size: 0x8, addend: 0x0, symName: __ZNKSt8__detail16__extent_storageILm18446744073709551615EE9_M_extentEv, symObjAddr: 0x600, symBinAddr: 0x100006670, symSize: 0x18 }
  - { offsetInCU: 0x2A3DB, offset: 0x2A3DB, size: 0x8, addend: 0x0, symName: __ZNSt12format_errorC1EPKc, symObjAddr: 0x618, symBinAddr: 0x100006688, symSize: 0x3C }
  - { offsetInCU: 0x2A46E, offset: 0x2A46E, size: 0x8, addend: 0x0, symName: __ZNSt8__detail16__extent_storageILm18446744073709551615EEC1Em, symObjAddr: 0x5DC, symBinAddr: 0x10000664C, symSize: 0x24 }
  - { offsetInCU: 0x2A476, offset: 0x2A476, size: 0x8, addend: 0x0, symName: __ZNKSt8__detail16__extent_storageILm18446744073709551615EE9_M_extentEv, symObjAddr: 0x600, symBinAddr: 0x100006670, symSize: 0x18 }
  - { offsetInCU: 0x2A46D, offset: 0x2A46D, size: 0x8, addend: 0x0, symName: __ZNKSt9type_info4nameEv, symObjAddr: 0x5A0, symBinAddr: 0x100006610, symSize: 0x3C }
  - { offsetInCU: 0x2A475, offset: 0x2A475, size: 0x8, addend: 0x0, symName: __ZNSt8__detail16__extent_storageILm18446744073709551615EEC1Em, symObjAddr: 0x5DC, symBinAddr: 0x10000664C, symSize: 0x24 }
  - { offsetInCU: 0x2A49E, offset: 0x2A49E, size: 0x8, addend: 0x0, symName: __ZNKSt7__cxx1112basic_stringIcSt11char_traitsIcESaIcEE4sizeEv, symObjAddr: 0x588, symBinAddr: 0x1000065F8, symSize: 0x18 }
  - { offsetInCU: 0x2A4A6, offset: 0x2A4A6, size: 0x8, addend: 0x0, symName: __ZNKSt9type_info4nameEv, symObjAddr: 0x5A0, symBinAddr: 0x100006610, symSize: 0x3C }
  - { offsetInCU: 0x2A4F4, offset: 0x2A4F4, size: 0x8, addend: 0x0, symName: __ZSt10__sv_checkmmPKc, symObjAddr: 0x52C, symBinAddr: 0x10000659C, symSize: 0x5C }
  - { offsetInCU: 0x2A4FC, offset: 0x2A4FC, size: 0x8, addend: 0x0, symName: __ZNKSt7__cxx1112basic_stringIcSt11char_traitsIcESaIcEE4sizeEv, symObjAddr: 0x588, symBinAddr: 0x1000065F8, symSize: 0x18 }
  - { offsetInCU: 0x2A536, offset: 0x2A536, size: 0x8, addend: 0x0, symName: __ZNSt11char_traitsIcE6assignEPcmc, symObjAddr: 0x4BC, symBinAddr: 0x10000652C, symSize: 0x70 }
  - { offsetInCU: 0x2A53E, offset: 0x2A53E, size: 0x8, addend: 0x0, symName: __ZSt10__sv_checkmmPKc, symObjAddr: 0x52C, symBinAddr: 0x10000659C, symSize: 0x5C }
  - { offsetInCU: 0x2A591, offset: 0x2A591, size: 0x8, addend: 0x0, symName: __ZNSt11char_traitsIcE4copyEPcPKcm, symObjAddr: 0x440, symBinAddr: 0x1000064B0, symSize: 0x7C }
  - { offsetInCU: 0x2A599, offset: 0x2A599, size: 0x8, addend: 0x0, symName: __ZNSt11char_traitsIcE6assignEPcmc, symObjAddr: 0x4BC, symBinAddr: 0x10000652C, symSize: 0x70 }
  - { offsetInCU: 0x2A5EC, offset: 0x2A5EC, size: 0x8, addend: 0x0, symName: __ZNSt11char_traitsIcE4moveEPcPKcm, symObjAddr: 0x3D4, symBinAddr: 0x100006444, symSize: 0x6C }
  - { offsetInCU: 0x2A5F4, offset: 0x2A5F4, size: 0x8, addend: 0x0, symName: __ZNSt11char_traitsIcE4copyEPcPKcm, symObjAddr: 0x440, symBinAddr: 0x1000064B0, symSize: 0x7C }
  - { offsetInCU: 0x2A647, offset: 0x2A647, size: 0x8, addend: 0x0, symName: __ZNSt11char_traitsIcE4findEPKcmRS1_, symObjAddr: 0x360, symBinAddr: 0x1000063D0, symSize: 0x74 }
  - { offsetInCU: 0x2A64F, offset: 0x2A64F, size: 0x8, addend: 0x0, symName: __ZNSt11char_traitsIcE4moveEPcPKcm, symObjAddr: 0x3D4, symBinAddr: 0x100006444, symSize: 0x6C }
  - { offsetInCU: 0x2A6A2, offset: 0x2A6A2, size: 0x8, addend: 0x0, symName: __ZNSt11char_traitsIcE6lengthEPKc, symObjAddr: 0x320, symBinAddr: 0x100006390, symSize: 0x40 }
  - { offsetInCU: 0x2A6AA, offset: 0x2A6AA, size: 0x8, addend: 0x0, symName: __ZNSt11char_traitsIcE4findEPKcmRS1_, symObjAddr: 0x360, symBinAddr: 0x1000063D0, symSize: 0x74 }
  - { offsetInCU: 0x2A6D5, offset: 0x2A6D5, size: 0x8, addend: 0x0, symName: __ZNSt11char_traitsIcE7compareEPKcS2_m, symObjAddr: 0x224, symBinAddr: 0x100006294, symSize: 0xFC }
  - { offsetInCU: 0x2A6DD, offset: 0x2A6DD, size: 0x8, addend: 0x0, symName: __ZNSt11char_traitsIcE6lengthEPKc, symObjAddr: 0x320, symBinAddr: 0x100006390, symSize: 0x40 }
  - { offsetInCU: 0x2A758, offset: 0x2A758, size: 0x8, addend: 0x0, symName: __ZNSt11char_traitsIcE2ltERKcS2_, symObjAddr: 0x1EC, symBinAddr: 0x10000625C, symSize: 0x38 }
  - { offsetInCU: 0x2A760, offset: 0x2A760, size: 0x8, addend: 0x0, symName: __ZNSt11char_traitsIcE7compareEPKcS2_m, symObjAddr: 0x224, symBinAddr: 0x100006294, symSize: 0xFC }
  - { offsetInCU: 0x2A79F, offset: 0x2A79F, size: 0x8, addend: 0x0, symName: __ZNSt11char_traitsIcE6assignERcRKc, symObjAddr: 0x19C, symBinAddr: 0x10000620C, symSize: 0x50 }
  - { offsetInCU: 0x2A7A7, offset: 0x2A7A7, size: 0x8, addend: 0x0, symName: __ZNSt11char_traitsIcE2ltERKcS2_, symObjAddr: 0x1EC, symBinAddr: 0x10000625C, symSize: 0x38 }
  - { offsetInCU: 0x2A7E6, offset: 0x2A7E6, size: 0x8, addend: 0x0, symName: __ZNSt14numeric_limitsIeE3maxEv, symObjAddr: 0x174, symBinAddr: 0x1000061E4, symSize: 0xC }
  - { offsetInCU: 0x2A7EE, offset: 0x2A7EE, size: 0x8, addend: 0x0, symName: __Z7toupperi, symObjAddr: 0x180, symBinAddr: 0x1000061F0, symSize: 0x1C }
  - { offsetInCU: 0x2A803, offset: 0x2A803, size: 0x8, addend: 0x0, symName: __ZNSt14numeric_limitsIeE3minEv, symObjAddr: 0x168, symBinAddr: 0x1000061D8, symSize: 0xC }
  - { offsetInCU: 0x2A80B, offset: 0x2A80B, size: 0x8, addend: 0x0, symName: __ZNSt14numeric_limitsIeE3maxEv, symObjAddr: 0x174, symBinAddr: 0x1000061E4, symSize: 0xC }
  - { offsetInCU: 0x2A820, offset: 0x2A820, size: 0x8, addend: 0x0, symName: __ZNSt14numeric_limitsIdE3maxEv, symObjAddr: 0x15C, symBinAddr: 0x1000061CC, symSize: 0xC }
  - { offsetInCU: 0x2A828, offset: 0x2A828, size: 0x8, addend: 0x0, symName: __ZNSt14numeric_limitsIeE3minEv, symObjAddr: 0x168, symBinAddr: 0x1000061D8, symSize: 0xC }
  - { offsetInCU: 0x2A83D, offset: 0x2A83D, size: 0x8, addend: 0x0, symName: __ZNSt14numeric_limitsIdE3minEv, symObjAddr: 0x150, symBinAddr: 0x1000061C0, symSize: 0xC }
  - { offsetInCU: 0x2A845, offset: 0x2A845, size: 0x8, addend: 0x0, symName: __ZNSt14numeric_limitsIdE3maxEv, symObjAddr: 0x15C, symBinAddr: 0x1000061CC, symSize: 0xC }
  - { offsetInCU: 0x2A85A, offset: 0x2A85A, size: 0x8, addend: 0x0, symName: __ZNSt14numeric_limitsIfE3maxEv, symObjAddr: 0x144, symBinAddr: 0x1000061B4, symSize: 0xC }
  - { offsetInCU: 0x2A862, offset: 0x2A862, size: 0x8, addend: 0x0, symName: __ZNSt14numeric_limitsIdE3minEv, symObjAddr: 0x150, symBinAddr: 0x1000061C0, symSize: 0xC }
  - { offsetInCU: 0x2A877, offset: 0x2A877, size: 0x8, addend: 0x0, symName: __ZNSt14numeric_limitsIfE3minEv, symObjAddr: 0x13C, symBinAddr: 0x1000061AC, symSize: 0x8 }
  - { offsetInCU: 0x2A87F, offset: 0x2A87F, size: 0x8, addend: 0x0, symName: __ZNSt14numeric_limitsIfE3maxEv, symObjAddr: 0x144, symBinAddr: 0x1000061B4, symSize: 0xC }
  - { offsetInCU: 0x2A894, offset: 0x2A894, size: 0x8, addend: 0x0, symName: __ZNSt14numeric_limitsIlE3maxEv, symObjAddr: 0x134, symBinAddr: 0x1000061A4, symSize: 0x8 }
  - { offsetInCU: 0x2A89C, offset: 0x2A89C, size: 0x8, addend: 0x0, symName: __ZNSt14numeric_limitsIfE3minEv, symObjAddr: 0x13C, symBinAddr: 0x1000061AC, symSize: 0x8 }
  - { offsetInCU: 0x2A8B1, offset: 0x2A8B1, size: 0x8, addend: 0x0, symName: __ZNSt14numeric_limitsIlE3minEv, symObjAddr: 0x12C, symBinAddr: 0x10000619C, symSize: 0x8 }
  - { offsetInCU: 0x2A8B9, offset: 0x2A8B9, size: 0x8, addend: 0x0, symName: __ZNSt14numeric_limitsIlE3maxEv, symObjAddr: 0x134, symBinAddr: 0x1000061A4, symSize: 0x8 }
  - { offsetInCU: 0x2A8CE, offset: 0x2A8CE, size: 0x8, addend: 0x0, symName: __ZNSt14numeric_limitsIjE3maxEv, symObjAddr: 0x124, symBinAddr: 0x100006194, symSize: 0x8 }
  - { offsetInCU: 0x2A8D6, offset: 0x2A8D6, size: 0x8, addend: 0x0, symName: __ZNSt14numeric_limitsIlE3minEv, symObjAddr: 0x12C, symBinAddr: 0x10000619C, symSize: 0x8 }
  - { offsetInCU: 0x2A8EB, offset: 0x2A8EB, size: 0x8, addend: 0x0, symName: __ZNSt14numeric_limitsIjE3minEv, symObjAddr: 0x11C, symBinAddr: 0x10000618C, symSize: 0x8 }
  - { offsetInCU: 0x2A8F3, offset: 0x2A8F3, size: 0x8, addend: 0x0, symName: __ZNSt14numeric_limitsIjE3maxEv, symObjAddr: 0x124, symBinAddr: 0x100006194, symSize: 0x8 }
  - { offsetInCU: 0x2A908, offset: 0x2A908, size: 0x8, addend: 0x0, symName: __ZNSt14numeric_limitsIiE3maxEv, symObjAddr: 0x114, symBinAddr: 0x100006184, symSize: 0x8 }
  - { offsetInCU: 0x2A910, offset: 0x2A910, size: 0x8, addend: 0x0, symName: __ZNSt14numeric_limitsIjE3minEv, symObjAddr: 0x11C, symBinAddr: 0x10000618C, symSize: 0x8 }
  - { offsetInCU: 0x2A925, offset: 0x2A925, size: 0x8, addend: 0x0, symName: __ZNSt14numeric_limitsIiE3minEv, symObjAddr: 0x10C, symBinAddr: 0x10000617C, symSize: 0x8 }
  - { offsetInCU: 0x2A92D, offset: 0x2A92D, size: 0x8, addend: 0x0, symName: __ZNSt14numeric_limitsIiE3maxEv, symObjAddr: 0x114, symBinAddr: 0x100006184, symSize: 0x8 }
  - { offsetInCU: 0x2A942, offset: 0x2A942, size: 0x8, addend: 0x0, symName: __ZNSt14numeric_limitsIsE3maxEv, symObjAddr: 0x104, symBinAddr: 0x100006174, symSize: 0x8 }
  - { offsetInCU: 0x2A94A, offset: 0x2A94A, size: 0x8, addend: 0x0, symName: __ZNSt14numeric_limitsIiE3minEv, symObjAddr: 0x10C, symBinAddr: 0x10000617C, symSize: 0x8 }
  - { offsetInCU: 0x2A95F, offset: 0x2A95F, size: 0x8, addend: 0x0, symName: __ZNSt14numeric_limitsIsE3minEv, symObjAddr: 0xFC, symBinAddr: 0x10000616C, symSize: 0x8 }
  - { offsetInCU: 0x2A967, offset: 0x2A967, size: 0x8, addend: 0x0, symName: __ZNSt14numeric_limitsIsE3maxEv, symObjAddr: 0x104, symBinAddr: 0x100006174, symSize: 0x8 }
  - { offsetInCU: 0x2A97C, offset: 0x2A97C, size: 0x8, addend: 0x0, symName: __ZNSt14numeric_limitsIcE3maxEv, symObjAddr: 0xF4, symBinAddr: 0x100006164, symSize: 0x8 }
  - { offsetInCU: 0x2A984, offset: 0x2A984, size: 0x8, addend: 0x0, symName: __ZNSt14numeric_limitsIsE3minEv, symObjAddr: 0xFC, symBinAddr: 0x10000616C, symSize: 0x8 }
  - { offsetInCU: 0x2A999, offset: 0x2A999, size: 0x8, addend: 0x0, symName: __ZNSt14numeric_limitsIcE3minEv, symObjAddr: 0xEC, symBinAddr: 0x10000615C, symSize: 0x8 }
  - { offsetInCU: 0x2A9A1, offset: 0x2A9A1, size: 0x8, addend: 0x0, symName: __ZNSt14numeric_limitsIcE3maxEv, symObjAddr: 0xF4, symBinAddr: 0x100006164, symSize: 0x8 }
  - { offsetInCU: 0x2A9E4, offset: 0x2A9E4, size: 0x8, addend: 0x0, symName: __ZSt11__bit_widthIiEiT_, symObjAddr: 0xBC, symBinAddr: 0x10000612C, symSize: 0x30 }
  - { offsetInCU: 0x2A9EC, offset: 0x2A9EC, size: 0x8, addend: 0x0, symName: __ZNSt14numeric_limitsIcE3minEv, symObjAddr: 0xEC, symBinAddr: 0x10000615C, symSize: 0x8 }
  - { offsetInCU: 0x2AA28, offset: 0x2AA28, size: 0x8, addend: 0x0, symName: __ZnwmPv, symObjAddr: 0x70, symBinAddr: 0x1000060E0, symSize: 0x18 }
  - { offsetInCU: 0x2AA30, offset: 0x2AA30, size: 0x8, addend: 0x0, symName: __ZSt8to_charsPcS_mi, symObjAddr: 0x88, symBinAddr: 0x1000060F8, symSize: 0x34 }
  - { offsetInCU: 0x2AAA3, offset: 0x2AAA3, size: 0x8, addend: 0x0, symName: __ZStltSt15strong_orderingNSt9__cmp_cat8__unspecE, symObjAddr: 0x4C, symBinAddr: 0x1000060BC, symSize: 0x24 }
  - { offsetInCU: 0x2AAAB, offset: 0x2AAAB, size: 0x8, addend: 0x0, symName: __ZnwmPv, symObjAddr: 0x70, symBinAddr: 0x1000060E0, symSize: 0x18 }
  - { offsetInCU: 0x2AAEA, offset: 0x2AAEA, size: 0x8, addend: 0x0, symName: __ZSteqSt15strong_orderingNSt9__cmp_cat8__unspecE, symObjAddr: 0x28, symBinAddr: 0x100006098, symSize: 0x24 }
  - { offsetInCU: 0x2AAF2, offset: 0x2AAF2, size: 0x8, addend: 0x0, symName: __ZStltSt15strong_orderingNSt9__cmp_cat8__unspecE, symObjAddr: 0x4C, symBinAddr: 0x1000060BC, symSize: 0x24 }
  - { offsetInCU: 0x2AB3F, offset: 0x2AB3F, size: 0x8, addend: 0x0, symName: __ZNSt9__cmp_cat8__unspecC1EPS0_, symObjAddr: 0x10, symBinAddr: 0x100006080, symSize: 0x18 }
  - { offsetInCU: 0x2AB47, offset: 0x2AB47, size: 0x8, addend: 0x0, symName: __ZSteqSt15strong_orderingNSt9__cmp_cat8__unspecE, symObjAddr: 0x28, symBinAddr: 0x100006098, symSize: 0x24 }
  - { offsetInCU: 0x2AB95, offset: 0x2AB95, size: 0x8, addend: 0x0, symName: __ZSt21is_constant_evaluatedv, symObjAddr: 0x8, symBinAddr: 0x100006078, symSize: 0x8 }
  - { offsetInCU: 0x2AB9D, offset: 0x2AB9D, size: 0x8, addend: 0x0, symName: __ZNSt9__cmp_cat8__unspecC1EPS0_, symObjAddr: 0x10, symBinAddr: 0x100006080, symSize: 0x18 }
  - { offsetInCU: 0x2ABC3, offset: 0x2ABC3, size: 0x8, addend: 0x0, symName: __ZSt23__is_constant_evaluatedv, symObjAddr: 0x0, symBinAddr: 0x100006070, symSize: 0x8 }
  - { offsetInCU: 0x2ABCB, offset: 0x2ABCB, size: 0x8, addend: 0x0, symName: __ZSt21is_constant_evaluatedv, symObjAddr: 0x8, symBinAddr: 0x100006078, symSize: 0x8 }
  - { offsetInCU: 0x146, offset: 0x2ACF2, size: 0x8, addend: 0x0, symName: ___udivti3, symObjAddr: 0x0, symBinAddr: 0x100016ED0, symSize: 0x348 }
  - { offsetInCU: 0x175, offset: 0x2AD21, size: 0x8, addend: 0x0, symName: ___udivti3, symObjAddr: 0x0, symBinAddr: 0x100016ED0, symSize: 0x348 }
  - { offsetInCU: 0x1AC, offset: 0x2AD58, size: 0x8, addend: 0x0, symName: ___udivti3, symObjAddr: 0x0, symBinAddr: 0x100016ED0, symSize: 0x348 }
  - { offsetInCU: 0x1D8, offset: 0x2AD84, size: 0x8, addend: 0x0, symName: ___udivti3, symObjAddr: 0x0, symBinAddr: 0x100016ED0, symSize: 0x348 }
...
